
GccApplication1.elf:     file format elf32-avr

Sections:
Idx Name          Size      VMA       LMA       File off  Algn
  0 .data         0000093e  00800100  00001c80  00001d14  2**0
                  CONTENTS, ALLOC, LOAD, DATA
  1 .text         00001c80  00000000  00000000  00000094  2**1
                  CONTENTS, ALLOC, LOAD, READONLY, CODE
  2 .bss          00000245  00800a3e  00800a3e  00002652  2**0
                  ALLOC
  3 .comment      00000030  00000000  00000000  00002652  2**0
                  CONTENTS, READONLY
  4 .note.gnu.avr.deviceinfo 00000040  00000000  00000000  00002684  2**2
                  CONTENTS, READONLY
  5 .debug_aranges 00000158  00000000  00000000  000026c4  2**0
                  CONTENTS, READONLY, DEBUGGING
  6 .debug_info   00001fe5  00000000  00000000  0000281c  2**0
                  CONTENTS, READONLY, DEBUGGING
  7 .debug_abbrev 00000c22  00000000  00000000  00004801  2**0
                  CONTENTS, READONLY, DEBUGGING
  8 .debug_line   00001372  00000000  00000000  00005423  2**0
                  CONTENTS, READONLY, DEBUGGING
  9 .debug_frame  00000374  00000000  00000000  00006798  2**2
                  CONTENTS, READONLY, DEBUGGING
 10 .debug_str    00000a97  00000000  00000000  00006b0c  2**0
                  CONTENTS, READONLY, DEBUGGING
 11 .debug_loc    000010ff  00000000  00000000  000075a3  2**0
                  CONTENTS, READONLY, DEBUGGING
 12 .debug_ranges 00000158  00000000  00000000  000086a2  2**0
                  CONTENTS, READONLY, DEBUGGING

Disassembly of section .text:

00000000 <__vectors>:
       0:	35 c1       	rjmp	.+618    	; 0x26c <__ctors_end>
       2:	00 00       	nop
       4:	52 c1       	rjmp	.+676    	; 0x2aa <__bad_interrupt>
       6:	00 00       	nop
       8:	50 c1       	rjmp	.+672    	; 0x2aa <__bad_interrupt>
       a:	00 00       	nop
       c:	4e c1       	rjmp	.+668    	; 0x2aa <__bad_interrupt>
       e:	00 00       	nop
      10:	4c c1       	rjmp	.+664    	; 0x2aa <__bad_interrupt>
      12:	00 00       	nop
      14:	4a c1       	rjmp	.+660    	; 0x2aa <__bad_interrupt>
      16:	00 00       	nop
      18:	48 c1       	rjmp	.+656    	; 0x2aa <__bad_interrupt>
      1a:	00 00       	nop
      1c:	46 c1       	rjmp	.+652    	; 0x2aa <__bad_interrupt>
      1e:	00 00       	nop
      20:	44 c1       	rjmp	.+648    	; 0x2aa <__bad_interrupt>
      22:	00 00       	nop
      24:	bc c1       	rjmp	.+888    	; 0x39e <__vector_9>
      26:	00 00       	nop
      28:	40 c1       	rjmp	.+640    	; 0x2aa <__bad_interrupt>
      2a:	00 00       	nop
      2c:	3e c1       	rjmp	.+636    	; 0x2aa <__bad_interrupt>
      2e:	00 00       	nop
      30:	3c c1       	rjmp	.+632    	; 0x2aa <__bad_interrupt>
      32:	00 00       	nop
      34:	3a c1       	rjmp	.+628    	; 0x2aa <__bad_interrupt>
      36:	00 00       	nop
      38:	38 c1       	rjmp	.+624    	; 0x2aa <__bad_interrupt>
      3a:	00 00       	nop
      3c:	36 c1       	rjmp	.+620    	; 0x2aa <__bad_interrupt>
      3e:	00 00       	nop
      40:	34 c1       	rjmp	.+616    	; 0x2aa <__bad_interrupt>
      42:	00 00       	nop
      44:	32 c1       	rjmp	.+612    	; 0x2aa <__bad_interrupt>
      46:	00 00       	nop
      48:	30 c1       	rjmp	.+608    	; 0x2aa <__bad_interrupt>
      4a:	00 00       	nop
      4c:	2e c1       	rjmp	.+604    	; 0x2aa <__bad_interrupt>
      4e:	00 00       	nop
      50:	2c c1       	rjmp	.+600    	; 0x2aa <__bad_interrupt>
      52:	00 00       	nop
      54:	2a c1       	rjmp	.+596    	; 0x2aa <__bad_interrupt>
      56:	00 00       	nop
      58:	28 c1       	rjmp	.+592    	; 0x2aa <__bad_interrupt>
      5a:	00 00       	nop
      5c:	26 c1       	rjmp	.+588    	; 0x2aa <__bad_interrupt>
      5e:	00 00       	nop
      60:	24 c1       	rjmp	.+584    	; 0x2aa <__bad_interrupt>
      62:	00 00       	nop
      64:	22 c1       	rjmp	.+580    	; 0x2aa <__bad_interrupt>
      66:	00 00       	nop
      68:	20 c1       	rjmp	.+576    	; 0x2aa <__bad_interrupt>
      6a:	00 00       	nop
      6c:	1e c1       	rjmp	.+572    	; 0x2aa <__bad_interrupt>
      6e:	00 00       	nop
      70:	1c c1       	rjmp	.+568    	; 0x2aa <__bad_interrupt>
      72:	00 00       	nop
      74:	1a c1       	rjmp	.+564    	; 0x2aa <__bad_interrupt>
      76:	00 00       	nop
      78:	18 c1       	rjmp	.+560    	; 0x2aa <__bad_interrupt>
      7a:	00 00       	nop
      7c:	16 c1       	rjmp	.+556    	; 0x2aa <__bad_interrupt>
      7e:	00 00       	nop
      80:	14 c1       	rjmp	.+552    	; 0x2aa <__bad_interrupt>
      82:	00 00       	nop
      84:	12 c1       	rjmp	.+548    	; 0x2aa <__bad_interrupt>
      86:	00 00       	nop
      88:	10 c1       	rjmp	.+544    	; 0x2aa <__bad_interrupt>
	...

0000008c <CHARSET>:
      8c:	00 00 00 00 00 00 00 5f 00 00 00 07 00 07 00 14     ......._........
      9c:	7f 14 7f 14 24 2a 7f 2a 12 23 13 08 64 62 36 49     ....$*.*.#..db6I
      ac:	55 22 50 00 05 03 00 00 00 1c 22 41 00 00 41 22     U"P......."A..A"
      bc:	1c 00 14 08 3e 08 14 08 08 3e 08 08 00 50 30 00     ....>....>...P0.
      cc:	00 08 08 08 08 08 00 60 60 00 00 20 10 08 04 02     .......``.. ....
      dc:	3e 51 49 45 3e 00 42 7f 40 00 42 61 51 49 46 21     >QIE>.B.@.BaQIF!
      ec:	41 45 4b 31 18 14 12 7f 10 27 45 45 45 39 3c 4a     AEK1.....'EEE9<J
      fc:	49 49 30 01 71 09 05 03 36 49 49 49 36 06 49 49     II0.q...6III6.II
     10c:	29 1e 00 36 36 00 00 00 56 36 00 00 08 14 22 41     )..66...V6...."A
     11c:	00 14 14 14 14 14 00 41 22 14 08 02 01 51 09 06     .......A"....Q..
     12c:	32 49 79 41 3e 7e 11 11 11 7e 7f 49 49 49 36 3e     2IyA>~...~.III6>
     13c:	41 41 41 22 7f 41 41 22 1c 7f 49 49 49 41 7f 09     AAA".AA"..IIIA..
     14c:	09 09 01 3e 41 49 49 7a 7f 08 08 08 7f 00 41 7f     ...>AIIz......A.
     15c:	41 00 20 40 41 3f 01 7f 08 14 22 41 7f 40 40 40     A. @A?...."A.@@@
     16c:	40 7f 02 0c 02 7f 7f 04 08 10 7f 3e 41 41 41 3e     @..........>AAA>
     17c:	7f 09 09 09 06 3e 41 51 21 5e 7f 09 19 29 46 46     .....>AQ!^...)FF
     18c:	49 49 49 31 01 01 7f 01 01 3f 40 40 40 3f 1f 20     III1.....?@@@?. 
     19c:	40 20 1f 3f 40 38 40 3f 63 14 08 14 63 07 08 70     @ .?@8@?c...c..p
     1ac:	08 07 61 51 49 45 43 00 7f 41 41 00 02 04 08 10     ..aQIEC..AA.....
     1bc:	20 00 41 41 7f 00 04 02 01 02 04 40 40 40 40 40      .AA.......@@@@@
     1cc:	00 01 02 04 00 20 54 54 54 78 7f 48 44 44 38 38     ..... TTTx.HDD88
     1dc:	44 44 44 20 38 44 44 48 7f 38 54 54 54 18 08 7e     DDD 8DDH.8TTT..~
     1ec:	09 01 02 0c 52 52 52 3e 7f 08 04 04 78 00 44 7d     ....RRR>....x.D}
     1fc:	40 00 20 40 44 3d 00 7f 10 28 44 00 00 41 7f 40     @. @D=...(D..A.@
     20c:	00 7c 04 18 04 78 7c 08 04 04 78 38 44 44 44 38     .|...x|...x8DDD8
     21c:	7c 14 14 14 08 08 14 14 18 7c 7c 08 04 04 08 48     |........||....H
     22c:	54 54 54 20 04 3f 44 40 20 3c 40 40 20 7c 1c 20     TTT .?D@ <@@ |. 
     23c:	40 20 1c 3c 40 30 40 3c 44 28 10 28 44 0c 50 50     @ .<@0@<D(.(D.PP
     24c:	50 3c 44 64 54 4c 44 00 08 36 41 00 00 00 7f 00     P<DdTLD..6A.....
     25c:	00 00 41 36 08 00 10 08 08 10 08 00 00 00 00 00     ..A6............

0000026c <__ctors_end>:
     26c:	11 24       	eor	r1, r1
     26e:	1f be       	out	0x3f, r1	; 63
     270:	cf ef       	ldi	r28, 0xFF	; 255
     272:	d0 e4       	ldi	r29, 0x40	; 64
     274:	de bf       	out	0x3e, r29	; 62
     276:	cd bf       	out	0x3d, r28	; 61

00000278 <__do_copy_data>:
     278:	1a e0       	ldi	r17, 0x0A	; 10
     27a:	a0 e0       	ldi	r26, 0x00	; 0
     27c:	b1 e0       	ldi	r27, 0x01	; 1
     27e:	e0 e8       	ldi	r30, 0x80	; 128
     280:	fc e1       	ldi	r31, 0x1C	; 28
     282:	00 e0       	ldi	r16, 0x00	; 0
     284:	0b bf       	out	0x3b, r16	; 59
     286:	02 c0       	rjmp	.+4      	; 0x28c <__do_copy_data+0x14>
     288:	07 90       	elpm	r0, Z+
     28a:	0d 92       	st	X+, r0
     28c:	ae 33       	cpi	r26, 0x3E	; 62
     28e:	b1 07       	cpc	r27, r17
     290:	d9 f7       	brne	.-10     	; 0x288 <__do_copy_data+0x10>

00000292 <__do_clear_bss>:
     292:	2c e0       	ldi	r18, 0x0C	; 12
     294:	ae e3       	ldi	r26, 0x3E	; 62
     296:	ba e0       	ldi	r27, 0x0A	; 10
     298:	01 c0       	rjmp	.+2      	; 0x29c <.do_clear_bss_start>

0000029a <.do_clear_bss_loop>:
     29a:	1d 92       	st	X+, r1

0000029c <.do_clear_bss_start>:
     29c:	a3 38       	cpi	r26, 0x83	; 131
     29e:	b2 07       	cpc	r27, r18
     2a0:	e1 f7       	brne	.-8      	; 0x29a <.do_clear_bss_loop>
     2a2:	0e 94 64 0a 	call	0x14c8	; 0x14c8 <main>
     2a6:	0c 94 3e 0e 	jmp	0x1c7c	; 0x1c7c <_exit>

000002aa <__bad_interrupt>:
     2aa:	aa ce       	rjmp	.-684    	; 0x0 <__vectors>

000002ac <pauseTick>:
	//buzzerSound = 0; //dud
	set_PWM0(freqSound);
}
void silenceH() {
	//buzzerSound = 0; //dud
	set_PWM0(0);
     2ac:	20 b1       	in	r18, 0x00	; 0
     2ae:	21 70       	andi	r18, 0x01	; 1
     2b0:	81 30       	cpi	r24, 0x01	; 1
     2b2:	91 05       	cpc	r25, r1
     2b4:	59 f0       	breq	.+22     	; 0x2cc <pauseTick+0x20>
     2b6:	82 30       	cpi	r24, 0x02	; 2
     2b8:	91 05       	cpc	r25, r1
     2ba:	a1 f0       	breq	.+40     	; 0x2e4 <pauseTick+0x38>
     2bc:	89 2b       	or	r24, r25
     2be:	b9 f4       	brne	.+46     	; 0x2ee <pauseTick+0x42>
     2c0:	81 e0       	ldi	r24, 0x01	; 1
     2c2:	80 93 05 01 	sts	0x0105, r24	; 0x800105 <paused>
     2c6:	81 e0       	ldi	r24, 0x01	; 1
     2c8:	90 e0       	ldi	r25, 0x00	; 0
     2ca:	08 95       	ret
     2cc:	22 23       	and	r18, r18
     2ce:	89 f0       	breq	.+34     	; 0x2f2 <pauseTick+0x46>
     2d0:	81 e0       	ldi	r24, 0x01	; 1
     2d2:	90 91 05 01 	lds	r25, 0x0105	; 0x800105 <paused>
     2d6:	91 11       	cpse	r25, r1
     2d8:	80 e0       	ldi	r24, 0x00	; 0
     2da:	80 93 05 01 	sts	0x0105, r24	; 0x800105 <paused>
     2de:	82 e0       	ldi	r24, 0x02	; 2
     2e0:	90 e0       	ldi	r25, 0x00	; 0
     2e2:	08 95       	ret
     2e4:	21 11       	cpse	r18, r1
     2e6:	05 c0       	rjmp	.+10     	; 0x2f2 <pauseTick+0x46>
     2e8:	81 e0       	ldi	r24, 0x01	; 1
     2ea:	90 e0       	ldi	r25, 0x00	; 0
     2ec:	08 95       	ret
     2ee:	80 e0       	ldi	r24, 0x00	; 0
     2f0:	90 e0       	ldi	r25, 0x00	; 0
     2f2:	08 95       	ret

000002f4 <NextPrevTick>:
     2f4:	20 b1       	in	r18, 0x00	; 0
     2f6:	32 2f       	mov	r19, r18
     2f8:	32 70       	andi	r19, 0x02	; 2
     2fa:	20 b1       	in	r18, 0x00	; 0
     2fc:	24 70       	andi	r18, 0x04	; 4
     2fe:	81 30       	cpi	r24, 0x01	; 1
     300:	91 05       	cpc	r25, r1
     302:	f1 f0       	breq	.+60     	; 0x340 <NextPrevTick+0x4c>
     304:	82 30       	cpi	r24, 0x02	; 2
     306:	91 05       	cpc	r25, r1
     308:	19 f1       	breq	.+70     	; 0x350 <NextPrevTick+0x5c>
     30a:	00 97       	sbiw	r24, 0x00	; 0
     30c:	31 f5       	brne	.+76     	; 0x35a <NextPrevTick+0x66>
     30e:	22 23       	and	r18, r18
     310:	41 f0       	breq	.+16     	; 0x322 <NextPrevTick+0x2e>
     312:	81 e0       	ldi	r24, 0x01	; 1
     314:	80 93 82 0c 	sts	0x0C82, r24	; 0x800c82 <prevSong>
     318:	10 92 7f 0c 	sts	0x0C7F, r1	; 0x800c7f <nextSong>
     31c:	81 e0       	ldi	r24, 0x01	; 1
     31e:	90 e0       	ldi	r25, 0x00	; 0
     320:	08 95       	ret
     322:	33 23       	and	r19, r19
     324:	41 f0       	breq	.+16     	; 0x336 <NextPrevTick+0x42>
     326:	81 e0       	ldi	r24, 0x01	; 1
     328:	80 93 7f 0c 	sts	0x0C7F, r24	; 0x800c7f <nextSong>
     32c:	10 92 82 0c 	sts	0x0C82, r1	; 0x800c82 <prevSong>
     330:	82 e0       	ldi	r24, 0x02	; 2
     332:	90 e0       	ldi	r25, 0x00	; 0
     334:	08 95       	ret
     336:	10 92 82 0c 	sts	0x0C82, r1	; 0x800c82 <prevSong>
     33a:	10 92 7f 0c 	sts	0x0C7F, r1	; 0x800c7f <nextSong>
     33e:	08 95       	ret
     340:	41 e0       	ldi	r20, 0x01	; 1
     342:	30 e0       	ldi	r19, 0x00	; 0
     344:	21 11       	cpse	r18, r1
     346:	01 c0       	rjmp	.+2      	; 0x34a <NextPrevTick+0x56>
     348:	40 e0       	ldi	r20, 0x00	; 0
     34a:	84 2f       	mov	r24, r20
     34c:	93 2f       	mov	r25, r19
     34e:	08 95       	ret
     350:	31 11       	cpse	r19, r1
     352:	05 c0       	rjmp	.+10     	; 0x35e <NextPrevTick+0x6a>
     354:	80 e0       	ldi	r24, 0x00	; 0
     356:	90 e0       	ldi	r25, 0x00	; 0
     358:	08 95       	ret
     35a:	80 e0       	ldi	r24, 0x00	; 0
     35c:	90 e0       	ldi	r25, 0x00	; 0
     35e:	08 95       	ret

00000360 <TimerOn>:
     360:	8b e0       	ldi	r24, 0x0B	; 11
     362:	80 93 b1 00 	sts	0x00B1, r24	; 0x8000b1 <__TEXT_REGION_LENGTH__+0x7e00b1>
     366:	8d e7       	ldi	r24, 0x7D	; 125
     368:	80 93 b3 00 	sts	0x00B3, r24	; 0x8000b3 <__TEXT_REGION_LENGTH__+0x7e00b3>
     36c:	82 e0       	ldi	r24, 0x02	; 2
     36e:	80 93 70 00 	sts	0x0070, r24	; 0x800070 <__TEXT_REGION_LENGTH__+0x7e0070>
     372:	10 92 b2 00 	sts	0x00B2, r1	; 0x8000b2 <__TEXT_REGION_LENGTH__+0x7e00b2>
     376:	80 91 5b 09 	lds	r24, 0x095B	; 0x80095b <_avr_timer_M>
     37a:	90 91 5c 09 	lds	r25, 0x095C	; 0x80095c <_avr_timer_M+0x1>
     37e:	a0 91 5d 09 	lds	r26, 0x095D	; 0x80095d <_avr_timer_M+0x2>
     382:	b0 91 5e 09 	lds	r27, 0x095E	; 0x80095e <_avr_timer_M+0x3>
     386:	80 93 80 0a 	sts	0x0A80, r24	; 0x800a80 <_avr_timer_cntcurr>
     38a:	90 93 81 0a 	sts	0x0A81, r25	; 0x800a81 <_avr_timer_cntcurr+0x1>
     38e:	a0 93 82 0a 	sts	0x0A82, r26	; 0x800a82 <_avr_timer_cntcurr+0x2>
     392:	b0 93 83 0a 	sts	0x0A83, r27	; 0x800a83 <_avr_timer_cntcurr+0x3>
     396:	8f b7       	in	r24, 0x3f	; 63
     398:	80 68       	ori	r24, 0x80	; 128
     39a:	8f bf       	out	0x3f, r24	; 63
     39c:	08 95       	ret

0000039e <__vector_9>:
     39e:	1f 92       	push	r1
     3a0:	0f 92       	push	r0
     3a2:	0f b6       	in	r0, 0x3f	; 63
     3a4:	0f 92       	push	r0
     3a6:	11 24       	eor	r1, r1
     3a8:	8f 93       	push	r24
     3aa:	9f 93       	push	r25
     3ac:	af 93       	push	r26
     3ae:	bf 93       	push	r27
     3b0:	80 91 80 0a 	lds	r24, 0x0A80	; 0x800a80 <_avr_timer_cntcurr>
     3b4:	90 91 81 0a 	lds	r25, 0x0A81	; 0x800a81 <_avr_timer_cntcurr+0x1>
     3b8:	a0 91 82 0a 	lds	r26, 0x0A82	; 0x800a82 <_avr_timer_cntcurr+0x2>
     3bc:	b0 91 83 0a 	lds	r27, 0x0A83	; 0x800a83 <_avr_timer_cntcurr+0x3>
     3c0:	01 97       	sbiw	r24, 0x01	; 1
     3c2:	a1 09       	sbc	r26, r1
     3c4:	b1 09       	sbc	r27, r1
     3c6:	80 93 80 0a 	sts	0x0A80, r24	; 0x800a80 <_avr_timer_cntcurr>
     3ca:	90 93 81 0a 	sts	0x0A81, r25	; 0x800a81 <_avr_timer_cntcurr+0x1>
     3ce:	a0 93 82 0a 	sts	0x0A82, r26	; 0x800a82 <_avr_timer_cntcurr+0x2>
     3d2:	b0 93 83 0a 	sts	0x0A83, r27	; 0x800a83 <_avr_timer_cntcurr+0x3>
     3d6:	89 2b       	or	r24, r25
     3d8:	8a 2b       	or	r24, r26
     3da:	8b 2b       	or	r24, r27
     3dc:	99 f4       	brne	.+38     	; 0x404 <__LOCK_REGION_LENGTH__+0x4>
     3de:	81 e0       	ldi	r24, 0x01	; 1
     3e0:	80 93 84 0a 	sts	0x0A84, r24	; 0x800a84 <TimerFlag>
     3e4:	80 91 5b 09 	lds	r24, 0x095B	; 0x80095b <_avr_timer_M>
     3e8:	90 91 5c 09 	lds	r25, 0x095C	; 0x80095c <_avr_timer_M+0x1>
     3ec:	a0 91 5d 09 	lds	r26, 0x095D	; 0x80095d <_avr_timer_M+0x2>
     3f0:	b0 91 5e 09 	lds	r27, 0x095E	; 0x80095e <_avr_timer_M+0x3>
     3f4:	80 93 80 0a 	sts	0x0A80, r24	; 0x800a80 <_avr_timer_cntcurr>
     3f8:	90 93 81 0a 	sts	0x0A81, r25	; 0x800a81 <_avr_timer_cntcurr+0x1>
     3fc:	a0 93 82 0a 	sts	0x0A82, r26	; 0x800a82 <_avr_timer_cntcurr+0x2>
     400:	b0 93 83 0a 	sts	0x0A83, r27	; 0x800a83 <_avr_timer_cntcurr+0x3>
     404:	bf 91       	pop	r27
     406:	af 91       	pop	r26
     408:	9f 91       	pop	r25
     40a:	8f 91       	pop	r24
     40c:	0f 90       	pop	r0
     40e:	0f be       	out	0x3f, r0	; 63
     410:	0f 90       	pop	r0
     412:	1f 90       	pop	r1
     414:	18 95       	reti

00000416 <TimerSet>:
     416:	60 93 5b 09 	sts	0x095B, r22	; 0x80095b <_avr_timer_M>
     41a:	70 93 5c 09 	sts	0x095C, r23	; 0x80095c <_avr_timer_M+0x1>
     41e:	80 93 5d 09 	sts	0x095D, r24	; 0x80095d <_avr_timer_M+0x2>
     422:	90 93 5e 09 	sts	0x095E, r25	; 0x80095e <_avr_timer_M+0x3>
     426:	60 93 80 0a 	sts	0x0A80, r22	; 0x800a80 <_avr_timer_cntcurr>
     42a:	70 93 81 0a 	sts	0x0A81, r23	; 0x800a81 <_avr_timer_cntcurr+0x1>
     42e:	80 93 82 0a 	sts	0x0A82, r24	; 0x800a82 <_avr_timer_cntcurr+0x2>
     432:	90 93 83 0a 	sts	0x0A83, r25	; 0x800a83 <_avr_timer_cntcurr+0x3>
     436:	08 95       	ret

00000438 <set_PWM>:
     438:	cf 92       	push	r12
     43a:	df 92       	push	r13
     43c:	ef 92       	push	r14
     43e:	ff 92       	push	r15
     440:	6b 01       	movw	r12, r22
     442:	7c 01       	movw	r14, r24
     444:	9b 01       	movw	r18, r22
     446:	ac 01       	movw	r20, r24
     448:	60 91 7c 0a 	lds	r22, 0x0A7C	; 0x800a7c <current_frequency.2060>
     44c:	70 91 7d 0a 	lds	r23, 0x0A7D	; 0x800a7d <current_frequency.2060+0x1>
     450:	80 91 7e 0a 	lds	r24, 0x0A7E	; 0x800a7e <current_frequency.2060+0x2>
     454:	90 91 7f 0a 	lds	r25, 0x0A7F	; 0x800a7f <current_frequency.2060+0x3>
     458:	0e 94 7c 0c 	call	0x18f8	; 0x18f8 <__cmpsf2>
     45c:	88 23       	and	r24, r24
     45e:	09 f4       	brne	.+2      	; 0x462 <set_PWM+0x2a>
     460:	56 c0       	rjmp	.+172    	; 0x50e <set_PWM+0xd6>
     462:	20 e0       	ldi	r18, 0x00	; 0
     464:	30 e0       	ldi	r19, 0x00	; 0
     466:	a9 01       	movw	r20, r18
     468:	c7 01       	movw	r24, r14
     46a:	b6 01       	movw	r22, r12
     46c:	0e 94 7c 0c 	call	0x18f8	; 0x18f8 <__cmpsf2>
     470:	81 11       	cpse	r24, r1
     472:	06 c0       	rjmp	.+12     	; 0x480 <set_PWM+0x48>
     474:	e1 e9       	ldi	r30, 0x91	; 145
     476:	f0 e0       	ldi	r31, 0x00	; 0
     478:	80 81       	ld	r24, Z
     47a:	88 70       	andi	r24, 0x08	; 8
     47c:	80 83       	st	Z, r24
     47e:	05 c0       	rjmp	.+10     	; 0x48a <set_PWM+0x52>
     480:	e1 e9       	ldi	r30, 0x91	; 145
     482:	f0 e0       	ldi	r31, 0x00	; 0
     484:	80 81       	ld	r24, Z
     486:	83 60       	ori	r24, 0x03	; 3
     488:	80 83       	st	Z, r24
     48a:	28 e5       	ldi	r18, 0x58	; 88
     48c:	39 e3       	ldi	r19, 0x39	; 57
     48e:	44 e7       	ldi	r20, 0x74	; 116
     490:	5f e3       	ldi	r21, 0x3F	; 63
     492:	c7 01       	movw	r24, r14
     494:	b6 01       	movw	r22, r12
     496:	0e 94 7c 0c 	call	0x18f8	; 0x18f8 <__cmpsf2>
     49a:	88 23       	and	r24, r24
     49c:	3c f4       	brge	.+14     	; 0x4ac <set_PWM+0x74>
     49e:	8f ef       	ldi	r24, 0xFF	; 255
     4a0:	9f ef       	ldi	r25, 0xFF	; 255
     4a2:	90 93 99 00 	sts	0x0099, r25	; 0x800099 <__TEXT_REGION_LENGTH__+0x7e0099>
     4a6:	80 93 98 00 	sts	0x0098, r24	; 0x800098 <__TEXT_REGION_LENGTH__+0x7e0098>
     4aa:	25 c0       	rjmp	.+74     	; 0x4f6 <set_PWM+0xbe>
     4ac:	20 e0       	ldi	r18, 0x00	; 0
     4ae:	34 e2       	ldi	r19, 0x24	; 36
     4b0:	44 ef       	ldi	r20, 0xF4	; 244
     4b2:	56 e4       	ldi	r21, 0x46	; 70
     4b4:	c7 01       	movw	r24, r14
     4b6:	b6 01       	movw	r22, r12
     4b8:	0e 94 cb 0d 	call	0x1b96	; 0x1b96 <__gesf2>
     4bc:	18 16       	cp	r1, r24
     4be:	2c f4       	brge	.+10     	; 0x4ca <set_PWM+0x92>
     4c0:	10 92 99 00 	sts	0x0099, r1	; 0x800099 <__TEXT_REGION_LENGTH__+0x7e0099>
     4c4:	10 92 98 00 	sts	0x0098, r1	; 0x800098 <__TEXT_REGION_LENGTH__+0x7e0098>
     4c8:	16 c0       	rjmp	.+44     	; 0x4f6 <set_PWM+0xbe>
     4ca:	20 e0       	ldi	r18, 0x00	; 0
     4cc:	30 e0       	ldi	r19, 0x00	; 0
     4ce:	40 e0       	ldi	r20, 0x00	; 0
     4d0:	53 e4       	ldi	r21, 0x43	; 67
     4d2:	c7 01       	movw	r24, r14
     4d4:	b6 01       	movw	r22, r12
     4d6:	0e 94 cf 0d 	call	0x1b9e	; 0x1b9e <__mulsf3>
     4da:	9b 01       	movw	r18, r22
     4dc:	ac 01       	movw	r20, r24
     4de:	60 e0       	ldi	r22, 0x00	; 0
     4e0:	74 e2       	ldi	r23, 0x24	; 36
     4e2:	84 ef       	ldi	r24, 0xF4	; 244
     4e4:	9a e4       	ldi	r25, 0x4A	; 74
     4e6:	0e 94 80 0c 	call	0x1900	; 0x1900 <__divsf3>
     4ea:	0e 94 e8 0c 	call	0x19d0	; 0x19d0 <__fixsfsi>
     4ee:	70 93 99 00 	sts	0x0099, r23	; 0x800099 <__TEXT_REGION_LENGTH__+0x7e0099>
     4f2:	60 93 98 00 	sts	0x0098, r22	; 0x800098 <__TEXT_REGION_LENGTH__+0x7e0098>
     4f6:	10 92 95 00 	sts	0x0095, r1	; 0x800095 <__TEXT_REGION_LENGTH__+0x7e0095>
     4fa:	10 92 94 00 	sts	0x0094, r1	; 0x800094 <__TEXT_REGION_LENGTH__+0x7e0094>
     4fe:	c0 92 7c 0a 	sts	0x0A7C, r12	; 0x800a7c <current_frequency.2060>
     502:	d0 92 7d 0a 	sts	0x0A7D, r13	; 0x800a7d <current_frequency.2060+0x1>
     506:	e0 92 7e 0a 	sts	0x0A7E, r14	; 0x800a7e <current_frequency.2060+0x2>
     50a:	f0 92 7f 0a 	sts	0x0A7F, r15	; 0x800a7f <current_frequency.2060+0x3>
     50e:	ff 90       	pop	r15
     510:	ef 90       	pop	r14
     512:	df 90       	pop	r13
     514:	cf 90       	pop	r12
     516:	08 95       	ret

00000518 <PWM_on>:
     518:	80 e4       	ldi	r24, 0x40	; 64
     51a:	80 93 90 00 	sts	0x0090, r24	; 0x800090 <__TEXT_REGION_LENGTH__+0x7e0090>
     51e:	8b e0       	ldi	r24, 0x0B	; 11
     520:	80 93 91 00 	sts	0x0091, r24	; 0x800091 <__TEXT_REGION_LENGTH__+0x7e0091>
     524:	60 e0       	ldi	r22, 0x00	; 0
     526:	70 e0       	ldi	r23, 0x00	; 0
     528:	cb 01       	movw	r24, r22
     52a:	86 cf       	rjmp	.-244    	; 0x438 <set_PWM>
     52c:	08 95       	ret

0000052e <set_PWMB>:
     52e:	cf 92       	push	r12
     530:	df 92       	push	r13
     532:	ef 92       	push	r14
     534:	ff 92       	push	r15
     536:	6b 01       	movw	r12, r22
     538:	7c 01       	movw	r14, r24
     53a:	9b 01       	movw	r18, r22
     53c:	ac 01       	movw	r20, r24
     53e:	60 91 78 0a 	lds	r22, 0x0A78	; 0x800a78 <current_frequency.2068>
     542:	70 91 79 0a 	lds	r23, 0x0A79	; 0x800a79 <current_frequency.2068+0x1>
     546:	80 91 7a 0a 	lds	r24, 0x0A7A	; 0x800a7a <current_frequency.2068+0x2>
     54a:	90 91 7b 0a 	lds	r25, 0x0A7B	; 0x800a7b <current_frequency.2068+0x3>
     54e:	0e 94 7c 0c 	call	0x18f8	; 0x18f8 <__cmpsf2>
     552:	88 23       	and	r24, r24
     554:	09 f4       	brne	.+2      	; 0x558 <set_PWMB+0x2a>
     556:	56 c0       	rjmp	.+172    	; 0x604 <set_PWMB+0xd6>
     558:	20 e0       	ldi	r18, 0x00	; 0
     55a:	30 e0       	ldi	r19, 0x00	; 0
     55c:	a9 01       	movw	r20, r18
     55e:	c7 01       	movw	r24, r14
     560:	b6 01       	movw	r22, r12
     562:	0e 94 7c 0c 	call	0x18f8	; 0x18f8 <__cmpsf2>
     566:	81 11       	cpse	r24, r1
     568:	06 c0       	rjmp	.+12     	; 0x576 <set_PWMB+0x48>
     56a:	e1 e8       	ldi	r30, 0x81	; 129
     56c:	f0 e0       	ldi	r31, 0x00	; 0
     56e:	80 81       	ld	r24, Z
     570:	88 70       	andi	r24, 0x08	; 8
     572:	80 83       	st	Z, r24
     574:	05 c0       	rjmp	.+10     	; 0x580 <set_PWMB+0x52>
     576:	e1 e8       	ldi	r30, 0x81	; 129
     578:	f0 e0       	ldi	r31, 0x00	; 0
     57a:	80 81       	ld	r24, Z
     57c:	83 60       	ori	r24, 0x03	; 3
     57e:	80 83       	st	Z, r24
     580:	28 e5       	ldi	r18, 0x58	; 88
     582:	39 e3       	ldi	r19, 0x39	; 57
     584:	44 e7       	ldi	r20, 0x74	; 116
     586:	5f e3       	ldi	r21, 0x3F	; 63
     588:	c7 01       	movw	r24, r14
     58a:	b6 01       	movw	r22, r12
     58c:	0e 94 7c 0c 	call	0x18f8	; 0x18f8 <__cmpsf2>
     590:	88 23       	and	r24, r24
     592:	3c f4       	brge	.+14     	; 0x5a2 <set_PWMB+0x74>
     594:	8f ef       	ldi	r24, 0xFF	; 255
     596:	9f ef       	ldi	r25, 0xFF	; 255
     598:	90 93 89 00 	sts	0x0089, r25	; 0x800089 <__TEXT_REGION_LENGTH__+0x7e0089>
     59c:	80 93 88 00 	sts	0x0088, r24	; 0x800088 <__TEXT_REGION_LENGTH__+0x7e0088>
     5a0:	25 c0       	rjmp	.+74     	; 0x5ec <set_PWMB+0xbe>
     5a2:	20 e0       	ldi	r18, 0x00	; 0
     5a4:	34 e2       	ldi	r19, 0x24	; 36
     5a6:	44 ef       	ldi	r20, 0xF4	; 244
     5a8:	56 e4       	ldi	r21, 0x46	; 70
     5aa:	c7 01       	movw	r24, r14
     5ac:	b6 01       	movw	r22, r12
     5ae:	0e 94 cb 0d 	call	0x1b96	; 0x1b96 <__gesf2>
     5b2:	18 16       	cp	r1, r24
     5b4:	2c f4       	brge	.+10     	; 0x5c0 <set_PWMB+0x92>
     5b6:	10 92 89 00 	sts	0x0089, r1	; 0x800089 <__TEXT_REGION_LENGTH__+0x7e0089>
     5ba:	10 92 88 00 	sts	0x0088, r1	; 0x800088 <__TEXT_REGION_LENGTH__+0x7e0088>
     5be:	16 c0       	rjmp	.+44     	; 0x5ec <set_PWMB+0xbe>
     5c0:	20 e0       	ldi	r18, 0x00	; 0
     5c2:	30 e0       	ldi	r19, 0x00	; 0
     5c4:	40 e0       	ldi	r20, 0x00	; 0
     5c6:	53 e4       	ldi	r21, 0x43	; 67
     5c8:	c7 01       	movw	r24, r14
     5ca:	b6 01       	movw	r22, r12
     5cc:	0e 94 cf 0d 	call	0x1b9e	; 0x1b9e <__mulsf3>
     5d0:	9b 01       	movw	r18, r22
     5d2:	ac 01       	movw	r20, r24
     5d4:	60 e0       	ldi	r22, 0x00	; 0
     5d6:	74 e2       	ldi	r23, 0x24	; 36
     5d8:	84 ef       	ldi	r24, 0xF4	; 244
     5da:	9a e4       	ldi	r25, 0x4A	; 74
     5dc:	0e 94 80 0c 	call	0x1900	; 0x1900 <__divsf3>
     5e0:	0e 94 e8 0c 	call	0x19d0	; 0x19d0 <__fixsfsi>
     5e4:	70 93 89 00 	sts	0x0089, r23	; 0x800089 <__TEXT_REGION_LENGTH__+0x7e0089>
     5e8:	60 93 88 00 	sts	0x0088, r22	; 0x800088 <__TEXT_REGION_LENGTH__+0x7e0088>
     5ec:	10 92 85 00 	sts	0x0085, r1	; 0x800085 <__TEXT_REGION_LENGTH__+0x7e0085>
     5f0:	10 92 84 00 	sts	0x0084, r1	; 0x800084 <__TEXT_REGION_LENGTH__+0x7e0084>
     5f4:	c0 92 78 0a 	sts	0x0A78, r12	; 0x800a78 <current_frequency.2068>
     5f8:	d0 92 79 0a 	sts	0x0A79, r13	; 0x800a79 <current_frequency.2068+0x1>
     5fc:	e0 92 7a 0a 	sts	0x0A7A, r14	; 0x800a7a <current_frequency.2068+0x2>
     600:	f0 92 7b 0a 	sts	0x0A7B, r15	; 0x800a7b <current_frequency.2068+0x3>
     604:	ff 90       	pop	r15
     606:	ef 90       	pop	r14
     608:	df 90       	pop	r13
     60a:	cf 90       	pop	r12
     60c:	08 95       	ret

0000060e <PWMB_on>:
     60e:	80 e4       	ldi	r24, 0x40	; 64
     610:	80 93 80 00 	sts	0x0080, r24	; 0x800080 <__TEXT_REGION_LENGTH__+0x7e0080>
     614:	8b e0       	ldi	r24, 0x0B	; 11
     616:	80 93 81 00 	sts	0x0081, r24	; 0x800081 <__TEXT_REGION_LENGTH__+0x7e0081>
     61a:	60 e0       	ldi	r22, 0x00	; 0
     61c:	70 e0       	ldi	r23, 0x00	; 0
     61e:	cb 01       	movw	r24, r22
     620:	86 cf       	rjmp	.-244    	; 0x52e <set_PWMB>
     622:	08 95       	ret

00000624 <play>:
     624:	bc 01       	movw	r22, r24
     626:	99 0f       	add	r25, r25
     628:	88 0b       	sbc	r24, r24
     62a:	99 0b       	sbc	r25, r25
     62c:	0e 94 1b 0d 	call	0x1a36	; 0x1a36 <__floatsisf>
     630:	03 cf       	rjmp	.-506    	; 0x438 <set_PWM>
     632:	08 95       	ret

00000634 <silence>:
     634:	60 e0       	ldi	r22, 0x00	; 0
     636:	70 e0       	ldi	r23, 0x00	; 0
     638:	cb 01       	movw	r24, r22
     63a:	fe ce       	rjmp	.-516    	; 0x438 <set_PWM>
     63c:	08 95       	ret

0000063e <playB>:
}
void playB(short freqSound) {
  //buzzerSound = 0;
  set_PWMB(freqSound);
     63e:	bc 01       	movw	r22, r24
     640:	99 0f       	add	r25, r25
     642:	88 0b       	sbc	r24, r24
     644:	99 0b       	sbc	r25, r25
     646:	0e 94 1b 0d 	call	0x1a36	; 0x1a36 <__floatsisf>
     64a:	71 cf       	rjmp	.-286    	; 0x52e <set_PWMB>
     64c:	08 95       	ret

0000064e <silenceB>:
}
void silenceB() {
  //buzzerSound = 0;
  set_PWMB(0);
     64e:	60 e0       	ldi	r22, 0x00	; 0
     650:	70 e0       	ldi	r23, 0x00	; 0
     652:	cb 01       	movw	r24, r22
     654:	6c cf       	rjmp	.-296    	; 0x52e <set_PWMB>
     656:	08 95       	ret

00000658 <DisplaySong1>:
short** playlistBasNL[] = {renCircHarNL, MaryHBasN, mooHLBasN};
short** playlistBasRL[] = {renCircHarRL, MaryHBasR, mooHLBasR};
char numRows[] = {1, 1, 1};

void DisplaySong1() {
	nokia_lcd_clear();
     658:	0e 94 68 0b 	call	0x16d0	; 0x16d0 <nokia_lcd_clear>
	nokia_lcd_set_cursor(0, 0);
     65c:	60 e0       	ldi	r22, 0x00	; 0
     65e:	70 e0       	ldi	r23, 0x00	; 0
     660:	80 e0       	ldi	r24, 0x00	; 0
     662:	90 e0       	ldi	r25, 0x00	; 0
     664:	0e 94 60 0c 	call	0x18c0	; 0x18c0 <nokia_lcd_set_cursor>
	nokia_lcd_write_string("Song Name:    Renai         Circulation", 1);
     668:	61 e0       	ldi	r22, 0x01	; 1
     66a:	70 e0       	ldi	r23, 0x00	; 0
     66c:	87 e6       	ldi	r24, 0x67	; 103
     66e:	99 e0       	ldi	r25, 0x09	; 9
     670:	0e 94 4e 0c 	call	0x189c	; 0x189c <nokia_lcd_write_string>
	nokia_lcd_render();
     674:	0c 94 65 0c 	jmp	0x18ca	; 0x18ca <nokia_lcd_render>
     678:	08 95       	ret

0000067a <DisplaySong2>:
}
void DisplaySong2() {
	nokia_lcd_clear();
     67a:	0e 94 68 0b 	call	0x16d0	; 0x16d0 <nokia_lcd_clear>
	nokia_lcd_set_cursor(0, 0);
     67e:	60 e0       	ldi	r22, 0x00	; 0
     680:	70 e0       	ldi	r23, 0x00	; 0
     682:	80 e0       	ldi	r24, 0x00	; 0
     684:	90 e0       	ldi	r25, 0x00	; 0
     686:	0e 94 60 0c 	call	0x18c0	; 0x18c0 <nokia_lcd_set_cursor>
	nokia_lcd_write_string("Song Name:    Mary Had A    Little Lamb", 1);
     68a:	61 e0       	ldi	r22, 0x01	; 1
     68c:	70 e0       	ldi	r23, 0x00	; 0
     68e:	8f e8       	ldi	r24, 0x8F	; 143
     690:	99 e0       	ldi	r25, 0x09	; 9
     692:	0e 94 4e 0c 	call	0x189c	; 0x189c <nokia_lcd_write_string>
	nokia_lcd_render();
     696:	0c 94 65 0c 	jmp	0x18ca	; 0x18ca <nokia_lcd_render>
     69a:	08 95       	ret

0000069c <DisplaySong3>:
}
void DisplaySong3() {
	nokia_lcd_clear();
     69c:	0e 94 68 0b 	call	0x16d0	; 0x16d0 <nokia_lcd_clear>
	nokia_lcd_set_cursor(0, 0);
     6a0:	60 e0       	ldi	r22, 0x00	; 0
     6a2:	70 e0       	ldi	r23, 0x00	; 0
     6a4:	80 e0       	ldi	r24, 0x00	; 0
     6a6:	90 e0       	ldi	r25, 0x00	; 0
     6a8:	0e 94 60 0c 	call	0x18c0	; 0x18c0 <nokia_lcd_set_cursor>
	nokia_lcd_write_string("Song Name:    Mamamoo :     Hello", 1);
     6ac:	61 e0       	ldi	r22, 0x01	; 1
     6ae:	70 e0       	ldi	r23, 0x00	; 0
     6b0:	87 eb       	ldi	r24, 0xB7	; 183
     6b2:	99 e0       	ldi	r25, 0x09	; 9
     6b4:	0e 94 4e 0c 	call	0x189c	; 0x189c <nokia_lcd_write_string>
	nokia_lcd_render();
     6b8:	0c 94 65 0c 	jmp	0x18ca	; 0x18ca <nokia_lcd_render>
     6bc:	08 95       	ret

000006be <DisplayPaused>:
}
void DisplayPaused() {
	nokia_lcd_clear();
     6be:	0e 94 68 0b 	call	0x16d0	; 0x16d0 <nokia_lcd_clear>
	nokia_lcd_set_cursor(0, 0);
     6c2:	60 e0       	ldi	r22, 0x00	; 0
     6c4:	70 e0       	ldi	r23, 0x00	; 0
     6c6:	80 e0       	ldi	r24, 0x00	; 0
     6c8:	90 e0       	ldi	r25, 0x00	; 0
     6ca:	0e 94 60 0c 	call	0x18c0	; 0x18c0 <nokia_lcd_set_cursor>
	nokia_lcd_write_string("Song Paused!  Press Play to Resume.", 1);
     6ce:	61 e0       	ldi	r22, 0x01	; 1
     6d0:	70 e0       	ldi	r23, 0x00	; 0
     6d2:	89 ed       	ldi	r24, 0xD9	; 217
     6d4:	99 e0       	ldi	r25, 0x09	; 9
     6d6:	0e 94 4e 0c 	call	0x189c	; 0x189c <nokia_lcd_write_string>
	nokia_lcd_render();
     6da:	0c 94 65 0c 	jmp	0x18ca	; 0x18ca <nokia_lcd_render>
     6de:	08 95       	ret

000006e0 <melodyTick>:
unsigned long y = sizeof(playlistMel[0]);
unsigned long playList = sizeof(playlistMel) / sizeof(playlistMel[0]);

unsigned char it4;
enum MelodyStates{Minit, Mwait, Mplay, Ml, Mr, Mp};
int melodyTick(int state) {
     6e0:	0f 93       	push	r16
     6e2:	1f 93       	push	r17
     6e4:	cf 93       	push	r28
     6e6:	df 93       	push	r29
     6e8:	ec 01       	movw	r28, r24
	static unsigned short it1;
	static unsigned short it2;
	static unsigned short it3;
	//static unsigned char it4;
	static unsigned char placeHolder;
	switch(state) {
     6ea:	82 30       	cpi	r24, 0x02	; 2
     6ec:	91 05       	cpc	r25, r1
     6ee:	69 f1       	breq	.+90     	; 0x74a <melodyTick+0x6a>
     6f0:	2c f4       	brge	.+10     	; 0x6fc <melodyTick+0x1c>
     6f2:	00 97       	sbiw	r24, 0x00	; 0
     6f4:	69 f0       	breq	.+26     	; 0x710 <melodyTick+0x30>
     6f6:	01 97       	sbiw	r24, 0x01	; 1
     6f8:	11 f1       	breq	.+68     	; 0x73e <melodyTick+0x5e>
     6fa:	62 c3       	rjmp	.+1732   	; 0xdc0 <melodyTick+0x6e0>
     6fc:	84 30       	cpi	r24, 0x04	; 4
     6fe:	91 05       	cpc	r25, r1
     700:	09 f4       	brne	.+2      	; 0x704 <melodyTick+0x24>
     702:	db c1       	rjmp	.+950    	; 0xaba <melodyTick+0x3da>
     704:	0c f4       	brge	.+2      	; 0x708 <melodyTick+0x28>
     706:	36 c1       	rjmp	.+620    	; 0x974 <melodyTick+0x294>
     708:	05 97       	sbiw	r24, 0x05	; 5
     70a:	09 f4       	brne	.+2      	; 0x70e <melodyTick+0x2e>
     70c:	7f c2       	rjmp	.+1278   	; 0xc0c <melodyTick+0x52c>
     70e:	58 c3       	rjmp	.+1712   	; 0xdc0 <melodyTick+0x6e0>
		case Minit:
			state= Mwait;
			it1 = 0;
     710:	10 92 77 0a 	sts	0x0A77, r1	; 0x800a77 <it1.2228+0x1>
     714:	10 92 76 0a 	sts	0x0A76, r1	; 0x800a76 <it1.2228>
			it2 = 0;
     718:	10 92 75 0a 	sts	0x0A75, r1	; 0x800a75 <it2.2229+0x1>
     71c:	10 92 74 0a 	sts	0x0A74, r1	; 0x800a74 <it2.2229>
			it3 = 0;
     720:	10 92 73 0a 	sts	0x0A73, r1	; 0x800a73 <it3.2230+0x1>
     724:	10 92 72 0a 	sts	0x0A72, r1	; 0x800a72 <it3.2230>
			it4 = 1;
     728:	81 e0       	ldi	r24, 0x01	; 1
     72a:	80 93 81 0c 	sts	0x0C81, r24	; 0x800c81 <it4>
			prevSong = 0;
     72e:	10 92 82 0c 	sts	0x0C82, r1	; 0x800c82 <prevSong>
			nextSong = 0;
     732:	10 92 7f 0c 	sts	0x0C7F, r1	; 0x800c7f <nextSong>
			silence();
     736:	7e df       	rcall	.-260    	; 0x634 <silence>
	static unsigned short it3;
	//static unsigned char it4;
	static unsigned char placeHolder;
	switch(state) {
		case Minit:
			state= Mwait;
     738:	c1 e0       	ldi	r28, 0x01	; 1
     73a:	d0 e0       	ldi	r29, 0x00	; 0
			it3 = 0;
			it4 = 1;
			prevSong = 0;
			nextSong = 0;
			silence();
			break;
     73c:	41 c3       	rjmp	.+1666   	; 0xdc0 <melodyTick+0x6e0>

		case Mwait:
			if (!paused) {
     73e:	80 91 05 01 	lds	r24, 0x0105	; 0x800105 <paused>
     742:	88 23       	and	r24, r24
     744:	09 f4       	brne	.+2      	; 0x748 <melodyTick+0x68>
     746:	31 c3       	rjmp	.+1634   	; 0xdaa <melodyTick+0x6ca>
     748:	3b c3       	rjmp	.+1654   	; 0xdc0 <melodyTick+0x6e0>
				state= Mwait;
			}
			break;

		case Mplay:
			songDone = 0;
     74a:	10 92 04 01 	sts	0x0104, r1	; 0x800104 <songDone>
			if (paused) {
     74e:	80 91 05 01 	lds	r24, 0x0105	; 0x800105 <paused>
     752:	88 23       	and	r24, r24
				silence();
     754:	41 f0       	breq	.+16     	; 0x766 <melodyTick+0x86>
				DisplayPaused();
     756:	6e df       	rcall	.-292    	; 0x634 <silence>
     758:	b2 df       	rcall	.-156    	; 0x6be <DisplayPaused>
				placeHolder = state;
     75a:	82 e0       	ldi	r24, 0x02	; 2
     75c:	80 93 71 0a 	sts	0x0A71, r24	; 0x800a71 <placeHolder.2231>
				state = Mp;
     760:	c5 e0       	ldi	r28, 0x05	; 5
     762:	d0 e0       	ldi	r29, 0x00	; 0
				break;
     764:	2d c3       	rjmp	.+1626   	; 0xdc0 <melodyTick+0x6e0>
			}
			if (prevSong && (it1 == 0)) {
     766:	80 91 82 0c 	lds	r24, 0x0C82	; 0x800c82 <prevSong>
     76a:	88 23       	and	r24, r24
     76c:	69 f1       	breq	.+90     	; 0x7c8 <melodyTick+0xe8>
     76e:	80 91 76 0a 	lds	r24, 0x0A76	; 0x800a76 <it1.2228>
     772:	90 91 77 0a 	lds	r25, 0x0A77	; 0x800a77 <it1.2228+0x1>
     776:	89 2b       	or	r24, r25
     778:	d1 f4       	brne	.+52     	; 0x7ae <melodyTick+0xce>
				it1 = 0;
     77a:	10 92 77 0a 	sts	0x0A77, r1	; 0x800a77 <it1.2228+0x1>
     77e:	10 92 76 0a 	sts	0x0A76, r1	; 0x800a76 <it1.2228>
				it2 = 0;
     782:	10 92 75 0a 	sts	0x0A75, r1	; 0x800a75 <it2.2229+0x1>
     786:	10 92 74 0a 	sts	0x0A74, r1	; 0x800a74 <it2.2229>
				it3 = 0;
     78a:	10 92 73 0a 	sts	0x0A73, r1	; 0x800a73 <it3.2230+0x1>
     78e:	10 92 72 0a 	sts	0x0A72, r1	; 0x800a72 <it3.2230>
				if (it4 == 0) {
     792:	80 91 81 0c 	lds	r24, 0x0C81	; 0x800c81 <it4>
     796:	81 11       	cpse	r24, r1
     798:	06 c0       	rjmp	.+12     	; 0x7a6 <melodyTick+0xc6>
					it4 = playList - 1;
     79a:	80 91 00 01 	lds	r24, 0x0100	; 0x800100 <__DATA_REGION_ORIGIN__>
     79e:	81 50       	subi	r24, 0x01	; 1
     7a0:	80 93 81 0c 	sts	0x0C81, r24	; 0x800c81 <it4>
     7a4:	0d c3       	rjmp	.+1562   	; 0xdc0 <melodyTick+0x6e0>
					//else if (it4 == 0) {
						//DisplaySong1();
					//}
				}
				else {
					it4 = it4 - 1;
     7a6:	81 50       	subi	r24, 0x01	; 1
     7a8:	80 93 81 0c 	sts	0x0C81, r24	; 0x800c81 <it4>
     7ac:	09 c3       	rjmp	.+1554   	; 0xdc0 <melodyTick+0x6e0>
				}
				state = Mplay;
				break;
			}
			else if (prevSong){
				it1 = 0;
     7ae:	10 92 77 0a 	sts	0x0A77, r1	; 0x800a77 <it1.2228+0x1>
     7b2:	10 92 76 0a 	sts	0x0A76, r1	; 0x800a76 <it1.2228>
				it2 = 0;
     7b6:	10 92 75 0a 	sts	0x0A75, r1	; 0x800a75 <it2.2229+0x1>
     7ba:	10 92 74 0a 	sts	0x0A74, r1	; 0x800a74 <it2.2229>
				it3 = 0;
     7be:	10 92 73 0a 	sts	0x0A73, r1	; 0x800a73 <it3.2230+0x1>
     7c2:	10 92 72 0a 	sts	0x0A72, r1	; 0x800a72 <it3.2230>
				state = Mplay;
				break;
     7c6:	fc c2       	rjmp	.+1528   	; 0xdc0 <melodyTick+0x6e0>
		}
		if (nextSong) {
     7c8:	80 91 7f 0c 	lds	r24, 0x0C7F	; 0x800c7f <nextSong>
     7cc:	88 23       	and	r24, r24
     7ce:	29 f1       	breq	.+74     	; 0x81a <melodyTick+0x13a>
			it1 = 0;
     7d0:	10 92 77 0a 	sts	0x0A77, r1	; 0x800a77 <it1.2228+0x1>
     7d4:	10 92 76 0a 	sts	0x0A76, r1	; 0x800a76 <it1.2228>
			it2 = 0;
     7d8:	10 92 75 0a 	sts	0x0A75, r1	; 0x800a75 <it2.2229+0x1>
     7dc:	10 92 74 0a 	sts	0x0A74, r1	; 0x800a74 <it2.2229>
			it3 = 0;
     7e0:	10 92 73 0a 	sts	0x0A73, r1	; 0x800a73 <it3.2230+0x1>
     7e4:	10 92 72 0a 	sts	0x0A72, r1	; 0x800a72 <it3.2230>
			it4 = it4 + 1;;
     7e8:	80 91 81 0c 	lds	r24, 0x0C81	; 0x800c81 <it4>
     7ec:	8f 5f       	subi	r24, 0xFF	; 255
     7ee:	80 93 81 0c 	sts	0x0C81, r24	; 0x800c81 <it4>
			if (it4 == playList) {
     7f2:	90 e0       	ldi	r25, 0x00	; 0
     7f4:	a0 e0       	ldi	r26, 0x00	; 0
     7f6:	b0 e0       	ldi	r27, 0x00	; 0
     7f8:	40 91 00 01 	lds	r20, 0x0100	; 0x800100 <__DATA_REGION_ORIGIN__>
     7fc:	50 91 01 01 	lds	r21, 0x0101	; 0x800101 <__DATA_REGION_ORIGIN__+0x1>
     800:	60 91 02 01 	lds	r22, 0x0102	; 0x800102 <__DATA_REGION_ORIGIN__+0x2>
     804:	70 91 03 01 	lds	r23, 0x0103	; 0x800103 <__DATA_REGION_ORIGIN__+0x3>
     808:	84 17       	cp	r24, r20
     80a:	95 07       	cpc	r25, r21
     80c:	a6 07       	cpc	r26, r22
     80e:	b7 07       	cpc	r27, r23
     810:	09 f0       	breq	.+2      	; 0x814 <melodyTick+0x134>
     812:	d6 c2       	rjmp	.+1452   	; 0xdc0 <melodyTick+0x6e0>
				it4 = 0;
     814:	10 92 81 0c 	sts	0x0C81, r1	; 0x800c81 <it4>
     818:	d3 c2       	rjmp	.+1446   	; 0xdc0 <melodyTick+0x6e0>
			}
			state = Mplay;
			break;
		}
		if (playlistMel[it4][it1][it2] == -1) {
     81a:	60 91 81 0c 	lds	r22, 0x0C81	; 0x800c81 <it4>
     81e:	26 2f       	mov	r18, r22
     820:	30 e0       	ldi	r19, 0x00	; 0
     822:	f9 01       	movw	r30, r18
     824:	ee 0f       	add	r30, r30
     826:	ff 1f       	adc	r31, r31
     828:	e9 5d       	subi	r30, 0xD9	; 217
     82a:	fe 4f       	sbci	r31, 0xFE	; 254
     82c:	40 81       	ld	r20, Z
     82e:	51 81       	ldd	r21, Z+1	; 0x01
     830:	00 91 76 0a 	lds	r16, 0x0A76	; 0x800a76 <it1.2228>
     834:	10 91 77 0a 	lds	r17, 0x0A77	; 0x800a77 <it1.2228+0x1>
     838:	d8 01       	movw	r26, r16
     83a:	aa 0f       	add	r26, r26
     83c:	bb 1f       	adc	r27, r27
     83e:	a4 0f       	add	r26, r20
     840:	b5 1f       	adc	r27, r21
     842:	e0 91 74 0a 	lds	r30, 0x0A74	; 0x800a74 <it2.2229>
     846:	f0 91 75 0a 	lds	r31, 0x0A75	; 0x800a75 <it2.2229+0x1>
     84a:	cf 01       	movw	r24, r30
     84c:	88 0f       	add	r24, r24
     84e:	99 1f       	adc	r25, r25
     850:	ed 91       	ld	r30, X+
     852:	fc 91       	ld	r31, X
     854:	e8 0f       	add	r30, r24
     856:	f9 1f       	adc	r31, r25
     858:	80 81       	ld	r24, Z
     85a:	91 81       	ldd	r25, Z+1	; 0x01
     85c:	01 96       	adiw	r24, 0x01	; 1
     85e:	51 f4       	brne	.+20     	; 0x874 <melodyTick+0x194>
			it1 = it1 + 1;
     860:	0f 5f       	subi	r16, 0xFF	; 255
     862:	1f 4f       	sbci	r17, 0xFF	; 255
     864:	10 93 77 0a 	sts	0x0A77, r17	; 0x800a77 <it1.2228+0x1>
     868:	00 93 76 0a 	sts	0x0A76, r16	; 0x800a76 <it1.2228>
			it2 = 0;
     86c:	10 92 75 0a 	sts	0x0A75, r1	; 0x800a75 <it2.2229+0x1>
     870:	10 92 74 0a 	sts	0x0A74, r1	; 0x800a74 <it2.2229>
		}
		if (it1 == numRows[it4]) {
     874:	80 91 76 0a 	lds	r24, 0x0A76	; 0x800a76 <it1.2228>
     878:	90 91 77 0a 	lds	r25, 0x0A77	; 0x800a77 <it1.2228+0x1>
     87c:	f9 01       	movw	r30, r18
     87e:	ea 5f       	subi	r30, 0xFA	; 250
     880:	fe 4f       	sbci	r31, 0xFE	; 254
     882:	20 81       	ld	r18, Z
     884:	30 e0       	ldi	r19, 0x00	; 0
     886:	28 17       	cp	r18, r24
     888:	39 07       	cpc	r19, r25
     88a:	41 f5       	brne	.+80     	; 0x8dc <melodyTick+0x1fc>
			songDone = 1;
     88c:	81 e0       	ldi	r24, 0x01	; 1
     88e:	80 93 04 01 	sts	0x0104, r24	; 0x800104 <songDone>
			state = Mwait;
			it1 = 0;
     892:	10 92 77 0a 	sts	0x0A77, r1	; 0x800a77 <it1.2228+0x1>
     896:	10 92 76 0a 	sts	0x0A76, r1	; 0x800a76 <it1.2228>
			it2 = 0;
     89a:	10 92 75 0a 	sts	0x0A75, r1	; 0x800a75 <it2.2229+0x1>
     89e:	10 92 74 0a 	sts	0x0A74, r1	; 0x800a74 <it2.2229>
			it3 = 0;
     8a2:	10 92 73 0a 	sts	0x0A73, r1	; 0x800a73 <it3.2230+0x1>
     8a6:	10 92 72 0a 	sts	0x0A72, r1	; 0x800a72 <it3.2230>
			it4 = it4 + 1;
     8aa:	86 0f       	add	r24, r22
     8ac:	80 93 81 0c 	sts	0x0C81, r24	; 0x800c81 <it4>
			if (it4 == playList) {
     8b0:	90 e0       	ldi	r25, 0x00	; 0
     8b2:	a0 e0       	ldi	r26, 0x00	; 0
     8b4:	b0 e0       	ldi	r27, 0x00	; 0
     8b6:	40 91 00 01 	lds	r20, 0x0100	; 0x800100 <__DATA_REGION_ORIGIN__>
     8ba:	50 91 01 01 	lds	r21, 0x0101	; 0x800101 <__DATA_REGION_ORIGIN__+0x1>
     8be:	60 91 02 01 	lds	r22, 0x0102	; 0x800102 <__DATA_REGION_ORIGIN__+0x2>
     8c2:	70 91 03 01 	lds	r23, 0x0103	; 0x800103 <__DATA_REGION_ORIGIN__+0x3>
     8c6:	84 17       	cp	r24, r20
     8c8:	95 07       	cpc	r25, r21
     8ca:	a6 07       	cpc	r26, r22
     8cc:	b7 07       	cpc	r27, r23
     8ce:	09 f0       	breq	.+2      	; 0x8d2 <melodyTick+0x1f2>
     8d0:	6f c2       	rjmp	.+1246   	; 0xdb0 <melodyTick+0x6d0>
				it4 = 0;
     8d2:	10 92 81 0c 	sts	0x0C81, r1	; 0x800c81 <it4>
			it1 = it1 + 1;
			it2 = 0;
		}
		if (it1 == numRows[it4]) {
			songDone = 1;
			state = Mwait;
     8d6:	c1 e0       	ldi	r28, 0x01	; 1
     8d8:	d0 e0       	ldi	r29, 0x00	; 0
     8da:	72 c2       	rjmp	.+1252   	; 0xdc0 <melodyTick+0x6e0>
		else if (it4 == 2) {
			DisplaySong3();
		}*/
		//play(playlistMel[it4][it1][it2]);
		//play(playlistMel[it4][it1][it2]);
		if (it4 == 0) {
     8dc:	61 11       	cpse	r22, r1
     8de:	17 c0       	rjmp	.+46     	; 0x90e <melodyTick+0x22e>
			play(playlistMel[it4][it1][it2]);
     8e0:	88 0f       	add	r24, r24
     8e2:	99 1f       	adc	r25, r25
     8e4:	fa 01       	movw	r30, r20
     8e6:	e8 0f       	add	r30, r24
     8e8:	f9 1f       	adc	r31, r25
     8ea:	80 91 74 0a 	lds	r24, 0x0A74	; 0x800a74 <it2.2229>
     8ee:	90 91 75 0a 	lds	r25, 0x0A75	; 0x800a75 <it2.2229+0x1>
     8f2:	88 0f       	add	r24, r24
     8f4:	99 1f       	adc	r25, r25
     8f6:	01 90       	ld	r0, Z+
     8f8:	f0 81       	ld	r31, Z
     8fa:	e0 2d       	mov	r30, r0
     8fc:	e8 0f       	add	r30, r24
     8fe:	f9 1f       	adc	r31, r25
     900:	80 81       	ld	r24, Z
     902:	91 81       	ldd	r25, Z+1	; 0x01
			DisplaySong1();
     904:	8f de       	rcall	.-738    	; 0x624 <play>
     906:	a8 de       	rcall	.-688    	; 0x658 <DisplaySong1>
			
			state = Ml;
     908:	c3 e0       	ldi	r28, 0x03	; 3
     90a:	d0 e0       	ldi	r29, 0x00	; 0
     90c:	59 c2       	rjmp	.+1202   	; 0xdc0 <melodyTick+0x6e0>
			//state = Ms0;
		}
		else if (it4 == 1) {
     90e:	61 30       	cpi	r22, 0x01	; 1
     910:	b9 f4       	brne	.+46     	; 0x940 <melodyTick+0x260>
			play(playlistMel[it4][it1][it2]);
     912:	88 0f       	add	r24, r24
     914:	99 1f       	adc	r25, r25
     916:	fa 01       	movw	r30, r20
     918:	e8 0f       	add	r30, r24
     91a:	f9 1f       	adc	r31, r25
     91c:	80 91 74 0a 	lds	r24, 0x0A74	; 0x800a74 <it2.2229>
     920:	90 91 75 0a 	lds	r25, 0x0A75	; 0x800a75 <it2.2229+0x1>
     924:	88 0f       	add	r24, r24
     926:	99 1f       	adc	r25, r25
     928:	01 90       	ld	r0, Z+
     92a:	f0 81       	ld	r31, Z
     92c:	e0 2d       	mov	r30, r0
     92e:	e8 0f       	add	r30, r24
     930:	f9 1f       	adc	r31, r25
     932:	80 81       	ld	r24, Z
     934:	91 81       	ldd	r25, Z+1	; 0x01
			DisplaySong2();
     936:	76 de       	rcall	.-788    	; 0x624 <play>
     938:	a0 de       	rcall	.-704    	; 0x67a <DisplaySong2>
			
			state = Ml;
     93a:	c3 e0       	ldi	r28, 0x03	; 3
     93c:	d0 e0       	ldi	r29, 0x00	; 0
     93e:	40 c2       	rjmp	.+1152   	; 0xdc0 <melodyTick+0x6e0>
			//state = Ms1;
		}
		else if (it4 == 2) {
     940:	62 30       	cpi	r22, 0x02	; 2
     942:	09 f0       	breq	.+2      	; 0x946 <melodyTick+0x266>
     944:	3d c2       	rjmp	.+1146   	; 0xdc0 <melodyTick+0x6e0>
			play(playlistMel[it4][it1][it2]);
     946:	88 0f       	add	r24, r24
     948:	99 1f       	adc	r25, r25
     94a:	fa 01       	movw	r30, r20
     94c:	e8 0f       	add	r30, r24
     94e:	f9 1f       	adc	r31, r25
     950:	80 91 74 0a 	lds	r24, 0x0A74	; 0x800a74 <it2.2229>
     954:	90 91 75 0a 	lds	r25, 0x0A75	; 0x800a75 <it2.2229+0x1>
     958:	88 0f       	add	r24, r24
     95a:	99 1f       	adc	r25, r25
     95c:	01 90       	ld	r0, Z+
     95e:	f0 81       	ld	r31, Z
     960:	e0 2d       	mov	r30, r0
     962:	e8 0f       	add	r30, r24
     964:	f9 1f       	adc	r31, r25
     966:	80 81       	ld	r24, Z
     968:	91 81       	ldd	r25, Z+1	; 0x01
			DisplaySong3();
     96a:	5c de       	rcall	.-840    	; 0x624 <play>
			
			state = Ml;
     96c:	97 de       	rcall	.-722    	; 0x69c <DisplaySong3>
     96e:	c3 e0       	ldi	r28, 0x03	; 3
     970:	d0 e0       	ldi	r29, 0x00	; 0

		//case Ms0:
					

		case Ml:
		if (paused) {
     972:	26 c2       	rjmp	.+1100   	; 0xdc0 <melodyTick+0x6e0>
     974:	80 91 05 01 	lds	r24, 0x0105	; 0x800105 <paused>
     978:	88 23       	and	r24, r24
			silence();
     97a:	41 f0       	breq	.+16     	; 0x98c <melodyTick+0x2ac>
     97c:	5b de       	rcall	.-842    	; 0x634 <silence>
			DisplayPaused();
     97e:	9f de       	rcall	.-706    	; 0x6be <DisplayPaused>
     980:	83 e0       	ldi	r24, 0x03	; 3
			placeHolder = state;
     982:	80 93 71 0a 	sts	0x0A71, r24	; 0x800a71 <placeHolder.2231>
     986:	c5 e0       	ldi	r28, 0x05	; 5
			state = Mp;
     988:	d0 e0       	ldi	r29, 0x00	; 0
     98a:	1a c2       	rjmp	.+1076   	; 0xdc0 <melodyTick+0x6e0>
			break;
     98c:	80 91 82 0c 	lds	r24, 0x0C82	; 0x800c82 <prevSong>
		}
		if (prevSong && (it1 == 0)) {
     990:	88 23       	and	r24, r24
     992:	99 f1       	breq	.+102    	; 0x9fa <melodyTick+0x31a>
     994:	80 91 76 0a 	lds	r24, 0x0A76	; 0x800a76 <it1.2228>
     998:	90 91 77 0a 	lds	r25, 0x0A77	; 0x800a77 <it1.2228+0x1>
     99c:	89 2b       	or	r24, r25
     99e:	f1 f4       	brne	.+60     	; 0x9dc <melodyTick+0x2fc>
     9a0:	10 92 77 0a 	sts	0x0A77, r1	; 0x800a77 <it1.2228+0x1>
			it1 = 0;
     9a4:	10 92 76 0a 	sts	0x0A76, r1	; 0x800a76 <it1.2228>
     9a8:	10 92 75 0a 	sts	0x0A75, r1	; 0x800a75 <it2.2229+0x1>
			it2 = 0;
     9ac:	10 92 74 0a 	sts	0x0A74, r1	; 0x800a74 <it2.2229>
     9b0:	10 92 73 0a 	sts	0x0A73, r1	; 0x800a73 <it3.2230+0x1>
			it3 = 0;
     9b4:	10 92 72 0a 	sts	0x0A72, r1	; 0x800a72 <it3.2230>
     9b8:	80 91 81 0c 	lds	r24, 0x0C81	; 0x800c81 <it4>
			if (it4 == 0) {
     9bc:	81 11       	cpse	r24, r1
     9be:	08 c0       	rjmp	.+16     	; 0x9d0 <melodyTick+0x2f0>
     9c0:	80 91 00 01 	lds	r24, 0x0100	; 0x800100 <__DATA_REGION_ORIGIN__>
				it4 = playList - 1;
     9c4:	81 50       	subi	r24, 0x01	; 1
     9c6:	80 93 81 0c 	sts	0x0C81, r24	; 0x800c81 <it4>
     9ca:	c2 e0       	ldi	r28, 0x02	; 2
				}
			else {
				it4 = it4 - 1;
			}
			state = Mplay;
     9cc:	d0 e0       	ldi	r29, 0x00	; 0
     9ce:	f8 c1       	rjmp	.+1008   	; 0xdc0 <melodyTick+0x6e0>
     9d0:	81 50       	subi	r24, 0x01	; 1
			it3 = 0;
			if (it4 == 0) {
				it4 = playList - 1;
				}
			else {
				it4 = it4 - 1;
     9d2:	80 93 81 0c 	sts	0x0C81, r24	; 0x800c81 <it4>
     9d6:	c2 e0       	ldi	r28, 0x02	; 2
			}
			state = Mplay;
     9d8:	d0 e0       	ldi	r29, 0x00	; 0
     9da:	f2 c1       	rjmp	.+996    	; 0xdc0 <melodyTick+0x6e0>
     9dc:	10 92 77 0a 	sts	0x0A77, r1	; 0x800a77 <it1.2228+0x1>
			break;
    }
    else if (prevSong){
			it1 = 0;
     9e0:	10 92 76 0a 	sts	0x0A76, r1	; 0x800a76 <it1.2228>
     9e4:	10 92 75 0a 	sts	0x0A75, r1	; 0x800a75 <it2.2229+0x1>
			it2 = 0;
     9e8:	10 92 74 0a 	sts	0x0A74, r1	; 0x800a74 <it2.2229>
     9ec:	10 92 73 0a 	sts	0x0A73, r1	; 0x800a73 <it3.2230+0x1>
			it3 = 0;
     9f0:	10 92 72 0a 	sts	0x0A72, r1	; 0x800a72 <it3.2230>
     9f4:	c2 e0       	ldi	r28, 0x02	; 2
			state = Mplay;
     9f6:	d0 e0       	ldi	r29, 0x00	; 0
     9f8:	e3 c1       	rjmp	.+966    	; 0xdc0 <melodyTick+0x6e0>
			break;
     9fa:	80 91 7f 0c 	lds	r24, 0x0C7F	; 0x800c7f <nextSong>
		}
		if (nextSong) {
     9fe:	88 23       	and	r24, r24
     a00:	39 f1       	breq	.+78     	; 0xa50 <melodyTick+0x370>
     a02:	10 92 77 0a 	sts	0x0A77, r1	; 0x800a77 <it1.2228+0x1>
			it1 = 0;
     a06:	10 92 76 0a 	sts	0x0A76, r1	; 0x800a76 <it1.2228>
     a0a:	10 92 75 0a 	sts	0x0A75, r1	; 0x800a75 <it2.2229+0x1>
			it2 = 0;
     a0e:	10 92 74 0a 	sts	0x0A74, r1	; 0x800a74 <it2.2229>
     a12:	10 92 73 0a 	sts	0x0A73, r1	; 0x800a73 <it3.2230+0x1>
			it3 = 0;
     a16:	10 92 72 0a 	sts	0x0A72, r1	; 0x800a72 <it3.2230>
     a1a:	80 91 81 0c 	lds	r24, 0x0C81	; 0x800c81 <it4>
			it4 = it4 + 1;
     a1e:	8f 5f       	subi	r24, 0xFF	; 255
     a20:	80 93 81 0c 	sts	0x0C81, r24	; 0x800c81 <it4>
     a24:	90 e0       	ldi	r25, 0x00	; 0
			if (it4 == playList) {
     a26:	a0 e0       	ldi	r26, 0x00	; 0
     a28:	b0 e0       	ldi	r27, 0x00	; 0
     a2a:	40 91 00 01 	lds	r20, 0x0100	; 0x800100 <__DATA_REGION_ORIGIN__>
     a2e:	50 91 01 01 	lds	r21, 0x0101	; 0x800101 <__DATA_REGION_ORIGIN__+0x1>
     a32:	60 91 02 01 	lds	r22, 0x0102	; 0x800102 <__DATA_REGION_ORIGIN__+0x2>
     a36:	70 91 03 01 	lds	r23, 0x0103	; 0x800103 <__DATA_REGION_ORIGIN__+0x3>
     a3a:	84 17       	cp	r24, r20
     a3c:	95 07       	cpc	r25, r21
     a3e:	a6 07       	cpc	r26, r22
     a40:	b7 07       	cpc	r27, r23
     a42:	09 f0       	breq	.+2      	; 0xa46 <melodyTick+0x366>
     a44:	b8 c1       	rjmp	.+880    	; 0xdb6 <melodyTick+0x6d6>
     a46:	10 92 81 0c 	sts	0x0C81, r1	; 0x800c81 <it4>
				it4 = 0;
     a4a:	c2 e0       	ldi	r28, 0x02	; 2
			}
			state = Mplay;
     a4c:	d0 e0       	ldi	r29, 0x00	; 0
     a4e:	b8 c1       	rjmp	.+880    	; 0xdc0 <melodyTick+0x6e0>
     a50:	20 91 72 0a 	lds	r18, 0x0A72	; 0x800a72 <it3.2230>
			break;
		}
		if (it3 < playlistMelNL[it4][it1][it2]) {
     a54:	30 91 73 0a 	lds	r19, 0x0A73	; 0x800a73 <it3.2230+0x1>
     a58:	e0 91 81 0c 	lds	r30, 0x0C81	; 0x800c81 <it4>
     a5c:	f0 e0       	ldi	r31, 0x00	; 0
     a5e:	ee 0f       	add	r30, r30
     a60:	ff 1f       	adc	r31, r31
     a62:	ef 5d       	subi	r30, 0xDF	; 223
     a64:	fe 4f       	sbci	r31, 0xFE	; 254
     a66:	a0 91 76 0a 	lds	r26, 0x0A76	; 0x800a76 <it1.2228>
     a6a:	b0 91 77 0a 	lds	r27, 0x0A77	; 0x800a77 <it1.2228+0x1>
     a6e:	cd 01       	movw	r24, r26
     a70:	88 0f       	add	r24, r24
     a72:	99 1f       	adc	r25, r25
     a74:	a0 81       	ld	r26, Z
     a76:	b1 81       	ldd	r27, Z+1	; 0x01
     a78:	a8 0f       	add	r26, r24
     a7a:	b9 1f       	adc	r27, r25
     a7c:	e0 91 74 0a 	lds	r30, 0x0A74	; 0x800a74 <it2.2229>
     a80:	f0 91 75 0a 	lds	r31, 0x0A75	; 0x800a75 <it2.2229+0x1>
     a84:	cf 01       	movw	r24, r30
     a86:	88 0f       	add	r24, r24
     a88:	99 1f       	adc	r25, r25
     a8a:	ed 91       	ld	r30, X+
     a8c:	fc 91       	ld	r31, X
     a8e:	e8 0f       	add	r30, r24
     a90:	f9 1f       	adc	r31, r25
     a92:	80 81       	ld	r24, Z
     a94:	91 81       	ldd	r25, Z+1	; 0x01
     a96:	28 17       	cp	r18, r24
     a98:	39 07       	cpc	r19, r25
     a9a:	38 f4       	brcc	.+14     	; 0xaaa <melodyTick+0x3ca>
     a9c:	2f 5f       	subi	r18, 0xFF	; 255
			it3 = it3 + 1;
     a9e:	3f 4f       	sbci	r19, 0xFF	; 255
     aa0:	30 93 73 0a 	sts	0x0A73, r19	; 0x800a73 <it3.2230+0x1>
     aa4:	20 93 72 0a 	sts	0x0A72, r18	; 0x800a72 <it3.2230>
     aa8:	8b c1       	rjmp	.+790    	; 0xdc0 <melodyTick+0x6e0>
			state = Ml;
			}
			else {
				it3 = 0;
     aaa:	10 92 73 0a 	sts	0x0A73, r1	; 0x800a73 <it3.2230+0x1>
				silence();
     aae:	10 92 72 0a 	sts	0x0A72, r1	; 0x800a72 <it3.2230>
				state = Mr;
     ab2:	c0 dd       	rcall	.-1152   	; 0x634 <silence>
     ab4:	c4 e0       	ldi	r28, 0x04	; 4
     ab6:	d0 e0       	ldi	r29, 0x00	; 0
			DisplaySong3();
		}*/
		break;

		case Mr:
		if (paused) {
     ab8:	83 c1       	rjmp	.+774    	; 0xdc0 <melodyTick+0x6e0>
     aba:	80 91 05 01 	lds	r24, 0x0105	; 0x800105 <paused>
     abe:	88 23       	and	r24, r24
			DisplayPaused();
     ac0:	41 f0       	breq	.+16     	; 0xad2 <melodyTick+0x3f2>
     ac2:	fd dd       	rcall	.-1030   	; 0x6be <DisplayPaused>
			silence();
     ac4:	b7 dd       	rcall	.-1170   	; 0x634 <silence>
     ac6:	84 e0       	ldi	r24, 0x04	; 4
			placeHolder = state;
     ac8:	80 93 71 0a 	sts	0x0A71, r24	; 0x800a71 <placeHolder.2231>
     acc:	c5 e0       	ldi	r28, 0x05	; 5
			state = Mp;
     ace:	d0 e0       	ldi	r29, 0x00	; 0
     ad0:	77 c1       	rjmp	.+750    	; 0xdc0 <melodyTick+0x6e0>
			break;
     ad2:	80 91 82 0c 	lds	r24, 0x0C82	; 0x800c82 <prevSong>
		}
		if (prevSong && (it1 == 0)) {
     ad6:	88 23       	and	r24, r24
     ad8:	99 f1       	breq	.+102    	; 0xb40 <melodyTick+0x460>
     ada:	80 91 76 0a 	lds	r24, 0x0A76	; 0x800a76 <it1.2228>
     ade:	90 91 77 0a 	lds	r25, 0x0A77	; 0x800a77 <it1.2228+0x1>
     ae2:	89 2b       	or	r24, r25
     ae4:	f1 f4       	brne	.+60     	; 0xb22 <melodyTick+0x442>
     ae6:	10 92 77 0a 	sts	0x0A77, r1	; 0x800a77 <it1.2228+0x1>
			it1 = 0;
     aea:	10 92 76 0a 	sts	0x0A76, r1	; 0x800a76 <it1.2228>
     aee:	10 92 75 0a 	sts	0x0A75, r1	; 0x800a75 <it2.2229+0x1>
			it2 = 0;
     af2:	10 92 74 0a 	sts	0x0A74, r1	; 0x800a74 <it2.2229>
     af6:	10 92 73 0a 	sts	0x0A73, r1	; 0x800a73 <it3.2230+0x1>
			it3 = 0;
     afa:	10 92 72 0a 	sts	0x0A72, r1	; 0x800a72 <it3.2230>
     afe:	80 91 81 0c 	lds	r24, 0x0C81	; 0x800c81 <it4>
			if (it4 == 0) {
     b02:	81 11       	cpse	r24, r1
     b04:	08 c0       	rjmp	.+16     	; 0xb16 <melodyTick+0x436>
     b06:	80 91 00 01 	lds	r24, 0x0100	; 0x800100 <__DATA_REGION_ORIGIN__>
				it4 = playList - 1;
     b0a:	81 50       	subi	r24, 0x01	; 1
     b0c:	80 93 81 0c 	sts	0x0C81, r24	; 0x800c81 <it4>
     b10:	c2 e0       	ldi	r28, 0x02	; 2
				}
      else {
				it4 = it4 - 1;
			}
			state = Mplay;
     b12:	d0 e0       	ldi	r29, 0x00	; 0
     b14:	55 c1       	rjmp	.+682    	; 0xdc0 <melodyTick+0x6e0>
     b16:	81 50       	subi	r24, 0x01	; 1
			it3 = 0;
			if (it4 == 0) {
				it4 = playList - 1;
				}
      else {
				it4 = it4 - 1;
     b18:	80 93 81 0c 	sts	0x0C81, r24	; 0x800c81 <it4>
     b1c:	c2 e0       	ldi	r28, 0x02	; 2
			}
			state = Mplay;
     b1e:	d0 e0       	ldi	r29, 0x00	; 0
     b20:	4f c1       	rjmp	.+670    	; 0xdc0 <melodyTick+0x6e0>
     b22:	10 92 77 0a 	sts	0x0A77, r1	; 0x800a77 <it1.2228+0x1>
			break;
    }
    else if (prevSong){
			it1 = 0;
     b26:	10 92 76 0a 	sts	0x0A76, r1	; 0x800a76 <it1.2228>
     b2a:	10 92 75 0a 	sts	0x0A75, r1	; 0x800a75 <it2.2229+0x1>
			 it2 = 0;
     b2e:	10 92 74 0a 	sts	0x0A74, r1	; 0x800a74 <it2.2229>
     b32:	10 92 73 0a 	sts	0x0A73, r1	; 0x800a73 <it3.2230+0x1>
			  it3 = 0;
     b36:	10 92 72 0a 	sts	0x0A72, r1	; 0x800a72 <it3.2230>
     b3a:	c2 e0       	ldi	r28, 0x02	; 2
			state = Mplay;
     b3c:	d0 e0       	ldi	r29, 0x00	; 0
     b3e:	40 c1       	rjmp	.+640    	; 0xdc0 <melodyTick+0x6e0>
			break;
     b40:	80 91 7f 0c 	lds	r24, 0x0C7F	; 0x800c7f <nextSong>
		}
		if (nextSong) {
     b44:	88 23       	and	r24, r24
     b46:	39 f1       	breq	.+78     	; 0xb96 <melodyTick+0x4b6>
     b48:	10 92 77 0a 	sts	0x0A77, r1	; 0x800a77 <it1.2228+0x1>
			it1 = 0;
     b4c:	10 92 76 0a 	sts	0x0A76, r1	; 0x800a76 <it1.2228>
     b50:	10 92 75 0a 	sts	0x0A75, r1	; 0x800a75 <it2.2229+0x1>
			 it2 = 0;
     b54:	10 92 74 0a 	sts	0x0A74, r1	; 0x800a74 <it2.2229>
     b58:	10 92 73 0a 	sts	0x0A73, r1	; 0x800a73 <it3.2230+0x1>
			 it3 = 0;
     b5c:	10 92 72 0a 	sts	0x0A72, r1	; 0x800a72 <it3.2230>
     b60:	80 91 81 0c 	lds	r24, 0x0C81	; 0x800c81 <it4>
			it4 = it4 + 1;
     b64:	8f 5f       	subi	r24, 0xFF	; 255
     b66:	80 93 81 0c 	sts	0x0C81, r24	; 0x800c81 <it4>
     b6a:	90 e0       	ldi	r25, 0x00	; 0
			if (it4 == playList) {
     b6c:	a0 e0       	ldi	r26, 0x00	; 0
     b6e:	b0 e0       	ldi	r27, 0x00	; 0
     b70:	40 91 00 01 	lds	r20, 0x0100	; 0x800100 <__DATA_REGION_ORIGIN__>
     b74:	50 91 01 01 	lds	r21, 0x0101	; 0x800101 <__DATA_REGION_ORIGIN__+0x1>
     b78:	60 91 02 01 	lds	r22, 0x0102	; 0x800102 <__DATA_REGION_ORIGIN__+0x2>
     b7c:	70 91 03 01 	lds	r23, 0x0103	; 0x800103 <__DATA_REGION_ORIGIN__+0x3>
     b80:	84 17       	cp	r24, r20
     b82:	95 07       	cpc	r25, r21
     b84:	a6 07       	cpc	r26, r22
     b86:	b7 07       	cpc	r27, r23
     b88:	09 f0       	breq	.+2      	; 0xb8c <melodyTick+0x4ac>
     b8a:	18 c1       	rjmp	.+560    	; 0xdbc <melodyTick+0x6dc>
     b8c:	10 92 81 0c 	sts	0x0C81, r1	; 0x800c81 <it4>
				it4 = 0;
     b90:	c2 e0       	ldi	r28, 0x02	; 2
			}
			state = Mplay;
     b92:	d0 e0       	ldi	r29, 0x00	; 0
     b94:	15 c1       	rjmp	.+554    	; 0xdc0 <melodyTick+0x6e0>
     b96:	20 91 74 0a 	lds	r18, 0x0A74	; 0x800a74 <it2.2229>
			break;
		}
		if (it3 < playlistMelRL[it4][it1][it2]) {
     b9a:	30 91 75 0a 	lds	r19, 0x0A75	; 0x800a75 <it2.2229+0x1>
     b9e:	40 91 72 0a 	lds	r20, 0x0A72	; 0x800a72 <it3.2230>
     ba2:	50 91 73 0a 	lds	r21, 0x0A73	; 0x800a73 <it3.2230+0x1>
     ba6:	e0 91 81 0c 	lds	r30, 0x0C81	; 0x800c81 <it4>
     baa:	f0 e0       	ldi	r31, 0x00	; 0
     bac:	ee 0f       	add	r30, r30
     bae:	ff 1f       	adc	r31, r31
     bb0:	e5 5e       	subi	r30, 0xE5	; 229
     bb2:	fe 4f       	sbci	r31, 0xFE	; 254
     bb4:	80 91 76 0a 	lds	r24, 0x0A76	; 0x800a76 <it1.2228>
     bb8:	90 91 77 0a 	lds	r25, 0x0A77	; 0x800a77 <it1.2228+0x1>
     bbc:	88 0f       	add	r24, r24
     bbe:	99 1f       	adc	r25, r25
     bc0:	01 90       	ld	r0, Z+
     bc2:	f0 81       	ld	r31, Z
     bc4:	e0 2d       	mov	r30, r0
     bc6:	e8 0f       	add	r30, r24
     bc8:	f9 1f       	adc	r31, r25
     bca:	c9 01       	movw	r24, r18
     bcc:	88 0f       	add	r24, r24
     bce:	99 1f       	adc	r25, r25
     bd0:	01 90       	ld	r0, Z+
     bd2:	f0 81       	ld	r31, Z
     bd4:	e0 2d       	mov	r30, r0
     bd6:	e8 0f       	add	r30, r24
     bd8:	f9 1f       	adc	r31, r25
     bda:	80 81       	ld	r24, Z
     bdc:	91 81       	ldd	r25, Z+1	; 0x01
     bde:	48 17       	cp	r20, r24
     be0:	59 07       	cpc	r21, r25
     be2:	38 f4       	brcc	.+14     	; 0xbf2 <melodyTick+0x512>
     be4:	4f 5f       	subi	r20, 0xFF	; 255
			it3 = it3 + 1;
     be6:	5f 4f       	sbci	r21, 0xFF	; 255
     be8:	50 93 73 0a 	sts	0x0A73, r21	; 0x800a73 <it3.2230+0x1>
     bec:	40 93 72 0a 	sts	0x0A72, r20	; 0x800a72 <it3.2230>
     bf0:	e7 c0       	rjmp	.+462    	; 0xdc0 <melodyTick+0x6e0>
     bf2:	10 92 73 0a 	sts	0x0A73, r1	; 0x800a73 <it3.2230+0x1>
			state = Mr;
			}
    else {
			it3 = 0;
     bf6:	10 92 72 0a 	sts	0x0A72, r1	; 0x800a72 <it3.2230>
     bfa:	2f 5f       	subi	r18, 0xFF	; 255
			it2 = it2 + 1;
     bfc:	3f 4f       	sbci	r19, 0xFF	; 255
     bfe:	30 93 75 0a 	sts	0x0A75, r19	; 0x800a75 <it2.2229+0x1>
     c02:	20 93 74 0a 	sts	0x0A74, r18	; 0x800a74 <it2.2229>
     c06:	c2 e0       	ldi	r28, 0x02	; 2
			state = Mplay;
     c08:	d0 e0       	ldi	r29, 0x00	; 0
     c0a:	da c0       	rjmp	.+436    	; 0xdc0 <melodyTick+0x6e0>
     c0c:	80 91 82 0c 	lds	r24, 0x0C82	; 0x800c82 <prevSong>
		}
		break;

		case Mp:
		if (prevSong && (it1 == 0)) {
     c10:	88 23       	and	r24, r24
     c12:	a9 f1       	breq	.+106    	; 0xc7e <melodyTick+0x59e>
     c14:	80 91 76 0a 	lds	r24, 0x0A76	; 0x800a76 <it1.2228>
     c18:	90 91 77 0a 	lds	r25, 0x0A77	; 0x800a77 <it1.2228+0x1>
     c1c:	89 2b       	or	r24, r25
     c1e:	f1 f4       	brne	.+60     	; 0xc5c <melodyTick+0x57c>
     c20:	10 92 77 0a 	sts	0x0A77, r1	; 0x800a77 <it1.2228+0x1>
			it1 = 0;
     c24:	10 92 76 0a 	sts	0x0A76, r1	; 0x800a76 <it1.2228>
     c28:	10 92 75 0a 	sts	0x0A75, r1	; 0x800a75 <it2.2229+0x1>
			it2 = 0;
     c2c:	10 92 74 0a 	sts	0x0A74, r1	; 0x800a74 <it2.2229>
     c30:	10 92 73 0a 	sts	0x0A73, r1	; 0x800a73 <it3.2230+0x1>
			it3 = 0;
     c34:	10 92 72 0a 	sts	0x0A72, r1	; 0x800a72 <it3.2230>
     c38:	80 91 81 0c 	lds	r24, 0x0C81	; 0x800c81 <it4>
			if (it4 == 0) {
     c3c:	81 11       	cpse	r24, r1
     c3e:	06 c0       	rjmp	.+12     	; 0xc4c <melodyTick+0x56c>
     c40:	80 91 00 01 	lds	r24, 0x0100	; 0x800100 <__DATA_REGION_ORIGIN__>
				it4 = playList - 1;
     c44:	81 50       	subi	r24, 0x01	; 1
     c46:	80 93 81 0c 	sts	0x0C81, r24	; 0x800c81 <it4>
     c4a:	03 c0       	rjmp	.+6      	; 0xc52 <melodyTick+0x572>
     c4c:	81 50       	subi	r24, 0x01	; 1
				}
      else {
				it4 = it4 - 1;
     c4e:	80 93 81 0c 	sts	0x0C81, r24	; 0x800c81 <it4>
     c52:	10 92 05 01 	sts	0x0105, r1	; 0x800105 <paused>
			}
			paused = 0;
     c56:	c2 e0       	ldi	r28, 0x02	; 2
			state = Mplay;
     c58:	d0 e0       	ldi	r29, 0x00	; 0
     c5a:	b2 c0       	rjmp	.+356    	; 0xdc0 <melodyTick+0x6e0>
			break;
     c5c:	10 92 77 0a 	sts	0x0A77, r1	; 0x800a77 <it1.2228+0x1>
    } else if (prevSong){
			it1 = 0;
     c60:	10 92 76 0a 	sts	0x0A76, r1	; 0x800a76 <it1.2228>
     c64:	10 92 75 0a 	sts	0x0A75, r1	; 0x800a75 <it2.2229+0x1>
			it2 = 0;
     c68:	10 92 74 0a 	sts	0x0A74, r1	; 0x800a74 <it2.2229>
     c6c:	10 92 73 0a 	sts	0x0A73, r1	; 0x800a73 <it3.2230+0x1>
			it3 = 0;
     c70:	10 92 72 0a 	sts	0x0A72, r1	; 0x800a72 <it3.2230>
     c74:	10 92 05 01 	sts	0x0105, r1	; 0x800105 <paused>
			paused = 0;
     c78:	c2 e0       	ldi	r28, 0x02	; 2
			state = Mplay;
     c7a:	d0 e0       	ldi	r29, 0x00	; 0
     c7c:	a1 c0       	rjmp	.+322    	; 0xdc0 <melodyTick+0x6e0>
			break;
     c7e:	80 91 7f 0c 	lds	r24, 0x0C7F	; 0x800c7f <nextSong>
		}
		if (nextSong) {
     c82:	88 23       	and	r24, r24
     c84:	41 f1       	breq	.+80     	; 0xcd6 <melodyTick+0x5f6>
     c86:	10 92 77 0a 	sts	0x0A77, r1	; 0x800a77 <it1.2228+0x1>
			it1 = 0;
     c8a:	10 92 76 0a 	sts	0x0A76, r1	; 0x800a76 <it1.2228>
     c8e:	10 92 75 0a 	sts	0x0A75, r1	; 0x800a75 <it2.2229+0x1>
			it2 = 0;
     c92:	10 92 74 0a 	sts	0x0A74, r1	; 0x800a74 <it2.2229>
     c96:	10 92 73 0a 	sts	0x0A73, r1	; 0x800a73 <it3.2230+0x1>
			it3 = 0;
     c9a:	10 92 72 0a 	sts	0x0A72, r1	; 0x800a72 <it3.2230>
     c9e:	80 91 81 0c 	lds	r24, 0x0C81	; 0x800c81 <it4>
			it4 = it4 + 1;
     ca2:	8f 5f       	subi	r24, 0xFF	; 255
     ca4:	80 93 81 0c 	sts	0x0C81, r24	; 0x800c81 <it4>
     ca8:	90 e0       	ldi	r25, 0x00	; 0
			if (it4 == playList) {
     caa:	a0 e0       	ldi	r26, 0x00	; 0
     cac:	b0 e0       	ldi	r27, 0x00	; 0
     cae:	40 91 00 01 	lds	r20, 0x0100	; 0x800100 <__DATA_REGION_ORIGIN__>
     cb2:	50 91 01 01 	lds	r21, 0x0101	; 0x800101 <__DATA_REGION_ORIGIN__+0x1>
     cb6:	60 91 02 01 	lds	r22, 0x0102	; 0x800102 <__DATA_REGION_ORIGIN__+0x2>
     cba:	70 91 03 01 	lds	r23, 0x0103	; 0x800103 <__DATA_REGION_ORIGIN__+0x3>
     cbe:	84 17       	cp	r24, r20
     cc0:	95 07       	cpc	r25, r21
     cc2:	a6 07       	cpc	r26, r22
     cc4:	b7 07       	cpc	r27, r23
     cc6:	11 f4       	brne	.+4      	; 0xccc <melodyTick+0x5ec>
				it4 = 0;
     cc8:	10 92 81 0c 	sts	0x0C81, r1	; 0x800c81 <it4>
			}
			paused = 0;
     ccc:	10 92 05 01 	sts	0x0105, r1	; 0x800105 <paused>
			state = Mplay;
     cd0:	c2 e0       	ldi	r28, 0x02	; 2
     cd2:	d0 e0       	ldi	r29, 0x00	; 0
			break;
     cd4:	75 c0       	rjmp	.+234    	; 0xdc0 <melodyTick+0x6e0>
		}
		if (paused) {
     cd6:	80 91 05 01 	lds	r24, 0x0105	; 0x800105 <paused>
     cda:	88 23       	and	r24, r24
     cdc:	11 f0       	breq	.+4      	; 0xce2 <melodyTick+0x602>
			DisplayPaused();
     cde:	ef dc       	rcall	.-1570   	; 0x6be <DisplayPaused>
     ce0:	6f c0       	rjmp	.+222    	; 0xdc0 <melodyTick+0x6e0>
     ce2:	80 91 71 0a 	lds	r24, 0x0A71	; 0x800a71 <placeHolder.2231>
			state = Mp;
			}
    else {
			if (placeHolder == Ml) {
     ce6:	83 30       	cpi	r24, 0x03	; 3
     ce8:	09 f0       	breq	.+2      	; 0xcec <melodyTick+0x60c>
     cea:	5b c0       	rjmp	.+182    	; 0xda2 <melodyTick+0x6c2>
     cec:	80 91 81 0c 	lds	r24, 0x0C81	; 0x800c81 <it4>
				}
				else if (it4 == 2) {
					DisplaySong3();
				}*/
				
				if (it4 == 0) {
     cf0:	81 11       	cpse	r24, r1
     cf2:	1c c0       	rjmp	.+56     	; 0xd2c <melodyTick+0x64c>
     cf4:	80 91 76 0a 	lds	r24, 0x0A76	; 0x800a76 <it1.2228>
					play(playlistMel[it4][it1][it2]);
     cf8:	90 91 77 0a 	lds	r25, 0x0A77	; 0x800a77 <it1.2228+0x1>
     cfc:	88 0f       	add	r24, r24
     cfe:	99 1f       	adc	r25, r25
     d00:	e0 91 27 01 	lds	r30, 0x0127	; 0x800127 <playlistMel>
     d04:	f0 91 28 01 	lds	r31, 0x0128	; 0x800128 <playlistMel+0x1>
     d08:	e8 0f       	add	r30, r24
     d0a:	f9 1f       	adc	r31, r25
     d0c:	80 91 74 0a 	lds	r24, 0x0A74	; 0x800a74 <it2.2229>
     d10:	90 91 75 0a 	lds	r25, 0x0A75	; 0x800a75 <it2.2229+0x1>
     d14:	88 0f       	add	r24, r24
     d16:	99 1f       	adc	r25, r25
     d18:	01 90       	ld	r0, Z+
     d1a:	f0 81       	ld	r31, Z
     d1c:	e0 2d       	mov	r30, r0
     d1e:	e8 0f       	add	r30, r24
     d20:	f9 1f       	adc	r31, r25
     d22:	80 81       	ld	r24, Z
     d24:	91 81       	ldd	r25, Z+1	; 0x01
     d26:	7e dc       	rcall	.-1796   	; 0x624 <play>
					DisplaySong1();
     d28:	97 dc       	rcall	.-1746   	; 0x658 <DisplaySong1>
     d2a:	3b c0       	rjmp	.+118    	; 0xda2 <melodyTick+0x6c2>
     d2c:	81 30       	cpi	r24, 0x01	; 1
					
				}
				else if (it4 == 1) {
     d2e:	e1 f4       	brne	.+56     	; 0xd68 <melodyTick+0x688>
     d30:	80 91 76 0a 	lds	r24, 0x0A76	; 0x800a76 <it1.2228>
					play(playlistMel[it4][it1][it2]);
     d34:	90 91 77 0a 	lds	r25, 0x0A77	; 0x800a77 <it1.2228+0x1>
     d38:	88 0f       	add	r24, r24
     d3a:	99 1f       	adc	r25, r25
     d3c:	e0 91 29 01 	lds	r30, 0x0129	; 0x800129 <playlistMel+0x2>
     d40:	f0 91 2a 01 	lds	r31, 0x012A	; 0x80012a <playlistMel+0x3>
     d44:	e8 0f       	add	r30, r24
     d46:	f9 1f       	adc	r31, r25
     d48:	80 91 74 0a 	lds	r24, 0x0A74	; 0x800a74 <it2.2229>
     d4c:	90 91 75 0a 	lds	r25, 0x0A75	; 0x800a75 <it2.2229+0x1>
     d50:	88 0f       	add	r24, r24
     d52:	99 1f       	adc	r25, r25
     d54:	01 90       	ld	r0, Z+
     d56:	f0 81       	ld	r31, Z
     d58:	e0 2d       	mov	r30, r0
     d5a:	e8 0f       	add	r30, r24
     d5c:	f9 1f       	adc	r31, r25
     d5e:	80 81       	ld	r24, Z
     d60:	91 81       	ldd	r25, Z+1	; 0x01
     d62:	60 dc       	rcall	.-1856   	; 0x624 <play>
					DisplaySong2();
     d64:	8a dc       	rcall	.-1772   	; 0x67a <DisplaySong2>
     d66:	1d c0       	rjmp	.+58     	; 0xda2 <melodyTick+0x6c2>
     d68:	82 30       	cpi	r24, 0x02	; 2
					
				}
				else if (it4 == 2) {
     d6a:	d9 f4       	brne	.+54     	; 0xda2 <melodyTick+0x6c2>
     d6c:	80 91 76 0a 	lds	r24, 0x0A76	; 0x800a76 <it1.2228>
					play(playlistMel[it4][it1][it2]);
     d70:	90 91 77 0a 	lds	r25, 0x0A77	; 0x800a77 <it1.2228+0x1>
     d74:	88 0f       	add	r24, r24
     d76:	99 1f       	adc	r25, r25
     d78:	e0 91 2b 01 	lds	r30, 0x012B	; 0x80012b <playlistMel+0x4>
     d7c:	f0 91 2c 01 	lds	r31, 0x012C	; 0x80012c <playlistMel+0x5>
     d80:	e8 0f       	add	r30, r24
     d82:	f9 1f       	adc	r31, r25
     d84:	80 91 74 0a 	lds	r24, 0x0A74	; 0x800a74 <it2.2229>
     d88:	90 91 75 0a 	lds	r25, 0x0A75	; 0x800a75 <it2.2229+0x1>
     d8c:	88 0f       	add	r24, r24
     d8e:	99 1f       	adc	r25, r25
     d90:	01 90       	ld	r0, Z+
     d92:	f0 81       	ld	r31, Z
     d94:	e0 2d       	mov	r30, r0
     d96:	e8 0f       	add	r30, r24
     d98:	f9 1f       	adc	r31, r25
     d9a:	80 81       	ld	r24, Z
     d9c:	91 81       	ldd	r25, Z+1	; 0x01
     d9e:	42 dc       	rcall	.-1916   	; 0x624 <play>
					DisplaySong3();
     da0:	7d dc       	rcall	.-1798   	; 0x69c <DisplaySong3>
     da2:	c0 91 71 0a 	lds	r28, 0x0A71	; 0x800a71 <placeHolder.2231>
				}
				//play(playlistMel[it4][it1][it2]);
					
				}
			state = placeHolder;
     da6:	d0 e0       	ldi	r29, 0x00	; 0
     da8:	0b c0       	rjmp	.+22     	; 0xdc0 <melodyTick+0x6e0>
     daa:	c2 e0       	ldi	r28, 0x02	; 2
			silence();
			break;

		case Mwait:
			if (!paused) {
				state= Mplay;
     dac:	d0 e0       	ldi	r29, 0x00	; 0
     dae:	08 c0       	rjmp	.+16     	; 0xdc0 <melodyTick+0x6e0>
     db0:	c1 e0       	ldi	r28, 0x01	; 1
			it1 = it1 + 1;
			it2 = 0;
		}
		if (it1 == numRows[it4]) {
			songDone = 1;
			state = Mwait;
     db2:	d0 e0       	ldi	r29, 0x00	; 0
     db4:	05 c0       	rjmp	.+10     	; 0xdc0 <melodyTick+0x6e0>
     db6:	c2 e0       	ldi	r28, 0x02	; 2
			it3 = 0;
			it4 = it4 + 1;
			if (it4 == playList) {
				it4 = 0;
			}
			state = Mplay;
     db8:	d0 e0       	ldi	r29, 0x00	; 0
     dba:	02 c0       	rjmp	.+4      	; 0xdc0 <melodyTick+0x6e0>
     dbc:	c2 e0       	ldi	r28, 0x02	; 2
			 it3 = 0;
			it4 = it4 + 1;
			if (it4 == playList) {
				it4 = 0;
			}
			state = Mplay;
     dbe:	d0 e0       	ldi	r29, 0x00	; 0
     dc0:	ce 01       	movw	r24, r28
			state = placeHolder;
		}
		break;
	}
	return state;
}
     dc2:	df 91       	pop	r29
     dc4:	cf 91       	pop	r28
     dc6:	1f 91       	pop	r17
     dc8:	0f 91       	pop	r16
     dca:	08 95       	ret

00000dcc <bassTick>:
     dcc:	0f 93       	push	r16
unsigned char it42;
enum BassStates{Binit, Bwait, Bplay, Bl, Br, Bp};
int bassTick(int state) {
     dce:	1f 93       	push	r17
     dd0:	cf 93       	push	r28
     dd2:	df 93       	push	r29
     dd4:	ec 01       	movw	r28, r24
	static unsigned short it1;
	static unsigned short it2;
	static unsigned short it3;
	//static unsigned char it42 = 0;
	static unsigned char placeHolder;
	switch(state) {
     dd6:	82 30       	cpi	r24, 0x02	; 2
     dd8:	91 05       	cpc	r25, r1
     dda:	69 f1       	breq	.+90     	; 0xe36 <bassTick+0x6a>
     ddc:	2c f4       	brge	.+10     	; 0xde8 <bassTick+0x1c>
     dde:	00 97       	sbiw	r24, 0x00	; 0
     de0:	69 f0       	breq	.+26     	; 0xdfc <bassTick+0x30>
     de2:	01 97       	sbiw	r24, 0x01	; 1
     de4:	11 f1       	breq	.+68     	; 0xe2a <bassTick+0x5e>
     de6:	5d c3       	rjmp	.+1722   	; 0x14a2 <bassTick+0x6d6>
     de8:	84 30       	cpi	r24, 0x04	; 4
     dea:	91 05       	cpc	r25, r1
     dec:	09 f4       	brne	.+2      	; 0xdf0 <bassTick+0x24>
     dee:	db c1       	rjmp	.+950    	; 0x11a6 <bassTick+0x3da>
     df0:	0c f4       	brge	.+2      	; 0xdf4 <bassTick+0x28>
     df2:	36 c1       	rjmp	.+620    	; 0x1060 <bassTick+0x294>
     df4:	05 97       	sbiw	r24, 0x05	; 5
     df6:	09 f4       	brne	.+2      	; 0xdfa <bassTick+0x2e>
     df8:	7f c2       	rjmp	.+1278   	; 0x12f8 <bassTick+0x52c>
     dfa:	53 c3       	rjmp	.+1702   	; 0x14a2 <bassTick+0x6d6>
		case Binit:
		state= Bwait;
		it1 = 0;
     dfc:	10 92 70 0a 	sts	0x0A70, r1	; 0x800a70 <it1.2250+0x1>
     e00:	10 92 6f 0a 	sts	0x0A6F, r1	; 0x800a6f <it1.2250>
		it2 = 0;
     e04:	10 92 6e 0a 	sts	0x0A6E, r1	; 0x800a6e <it2.2251+0x1>
     e08:	10 92 6d 0a 	sts	0x0A6D, r1	; 0x800a6d <it2.2251>
		it3 = 0;
     e0c:	10 92 6c 0a 	sts	0x0A6C, r1	; 0x800a6c <it3.2252+0x1>
     e10:	10 92 6b 0a 	sts	0x0A6B, r1	; 0x800a6b <it3.2252>
		it42 = 1;
     e14:	81 e0       	ldi	r24, 0x01	; 1
     e16:	80 93 80 0c 	sts	0x0C80, r24	; 0x800c80 <it42>
		prevSong = 0;
     e1a:	10 92 82 0c 	sts	0x0C82, r1	; 0x800c82 <prevSong>
		nextSong = 0;
     e1e:	10 92 7f 0c 	sts	0x0C7F, r1	; 0x800c7f <nextSong>
		silenceB();
     e22:	15 dc       	rcall	.-2006   	; 0x64e <silenceB>
	static unsigned short it3;
	//static unsigned char it42 = 0;
	static unsigned char placeHolder;
	switch(state) {
		case Binit:
		state= Bwait;
     e24:	c1 e0       	ldi	r28, 0x01	; 1
     e26:	d0 e0       	ldi	r29, 0x00	; 0
		it3 = 0;
		it42 = 1;
		prevSong = 0;
		nextSong = 0;
		silenceB();
		break;
     e28:	3c c3       	rjmp	.+1656   	; 0x14a2 <bassTick+0x6d6>

		case Bwait:
		if (!paused) {
     e2a:	80 91 05 01 	lds	r24, 0x0105	; 0x800105 <paused>
     e2e:	88 23       	and	r24, r24
     e30:	09 f4       	brne	.+2      	; 0xe34 <bassTick+0x68>
     e32:	2c c3       	rjmp	.+1624   	; 0x148c <bassTick+0x6c0>
     e34:	36 c3       	rjmp	.+1644   	; 0x14a2 <bassTick+0x6d6>
			state= Bwait;
		}
		break;

		case Bplay:
		songDone = 0;
     e36:	10 92 04 01 	sts	0x0104, r1	; 0x800104 <songDone>
		if (paused) {
     e3a:	80 91 05 01 	lds	r24, 0x0105	; 0x800105 <paused>
     e3e:	88 23       	and	r24, r24
			silenceB();
     e40:	41 f0       	breq	.+16     	; 0xe52 <bassTick+0x86>
			DisplayPaused();
     e42:	05 dc       	rcall	.-2038   	; 0x64e <silenceB>
     e44:	3c dc       	rcall	.-1928   	; 0x6be <DisplayPaused>
			placeHolder = state;
     e46:	82 e0       	ldi	r24, 0x02	; 2
     e48:	80 93 6a 0a 	sts	0x0A6A, r24	; 0x800a6a <placeHolder.2253>
			state = Bp;
     e4c:	c5 e0       	ldi	r28, 0x05	; 5
     e4e:	d0 e0       	ldi	r29, 0x00	; 0
			break;
     e50:	28 c3       	rjmp	.+1616   	; 0x14a2 <bassTick+0x6d6>
		}
		if (prevSong && (it1 == 0)) {
     e52:	80 91 82 0c 	lds	r24, 0x0C82	; 0x800c82 <prevSong>
     e56:	88 23       	and	r24, r24
     e58:	69 f1       	breq	.+90     	; 0xeb4 <bassTick+0xe8>
     e5a:	80 91 6f 0a 	lds	r24, 0x0A6F	; 0x800a6f <it1.2250>
     e5e:	90 91 70 0a 	lds	r25, 0x0A70	; 0x800a70 <it1.2250+0x1>
     e62:	89 2b       	or	r24, r25
     e64:	d1 f4       	brne	.+52     	; 0xe9a <bassTick+0xce>
			it1 = 0;
     e66:	10 92 70 0a 	sts	0x0A70, r1	; 0x800a70 <it1.2250+0x1>
     e6a:	10 92 6f 0a 	sts	0x0A6F, r1	; 0x800a6f <it1.2250>
			it2 = 0;
     e6e:	10 92 6e 0a 	sts	0x0A6E, r1	; 0x800a6e <it2.2251+0x1>
     e72:	10 92 6d 0a 	sts	0x0A6D, r1	; 0x800a6d <it2.2251>
			it3 = 0;
     e76:	10 92 6c 0a 	sts	0x0A6C, r1	; 0x800a6c <it3.2252+0x1>
     e7a:	10 92 6b 0a 	sts	0x0A6B, r1	; 0x800a6b <it3.2252>
			if (it42 == 0) {
     e7e:	80 91 80 0c 	lds	r24, 0x0C80	; 0x800c80 <it42>
     e82:	81 11       	cpse	r24, r1
     e84:	06 c0       	rjmp	.+12     	; 0xe92 <bassTick+0xc6>
				it42 = playList - 1;
     e86:	80 91 00 01 	lds	r24, 0x0100	; 0x800100 <__DATA_REGION_ORIGIN__>
     e8a:	81 50       	subi	r24, 0x01	; 1
     e8c:	80 93 80 0c 	sts	0x0C80, r24	; 0x800c80 <it42>
     e90:	08 c3       	rjmp	.+1552   	; 0x14a2 <bassTick+0x6d6>
			}
			else {
				it42 = it42 - 1;
     e92:	81 50       	subi	r24, 0x01	; 1
     e94:	80 93 80 0c 	sts	0x0C80, r24	; 0x800c80 <it42>
     e98:	04 c3       	rjmp	.+1544   	; 0x14a2 <bassTick+0x6d6>
			}
			state = Bplay;
			break;
		}
		else if (prevSong){
			it1 = 0;
     e9a:	10 92 70 0a 	sts	0x0A70, r1	; 0x800a70 <it1.2250+0x1>
     e9e:	10 92 6f 0a 	sts	0x0A6F, r1	; 0x800a6f <it1.2250>
			it2 = 0;
     ea2:	10 92 6e 0a 	sts	0x0A6E, r1	; 0x800a6e <it2.2251+0x1>
     ea6:	10 92 6d 0a 	sts	0x0A6D, r1	; 0x800a6d <it2.2251>
			it3 = 0;
     eaa:	10 92 6c 0a 	sts	0x0A6C, r1	; 0x800a6c <it3.2252+0x1>
     eae:	10 92 6b 0a 	sts	0x0A6B, r1	; 0x800a6b <it3.2252>
			state = Bplay;
			break;
     eb2:	f7 c2       	rjmp	.+1518   	; 0x14a2 <bassTick+0x6d6>
		}
		if (nextSong) {
     eb4:	80 91 7f 0c 	lds	r24, 0x0C7F	; 0x800c7f <nextSong>
     eb8:	88 23       	and	r24, r24
     eba:	29 f1       	breq	.+74     	; 0xf06 <bassTick+0x13a>
			it1 = 0;
     ebc:	10 92 70 0a 	sts	0x0A70, r1	; 0x800a70 <it1.2250+0x1>
     ec0:	10 92 6f 0a 	sts	0x0A6F, r1	; 0x800a6f <it1.2250>
			it2 = 0;
     ec4:	10 92 6e 0a 	sts	0x0A6E, r1	; 0x800a6e <it2.2251+0x1>
     ec8:	10 92 6d 0a 	sts	0x0A6D, r1	; 0x800a6d <it2.2251>
			it3 = 0;
     ecc:	10 92 6c 0a 	sts	0x0A6C, r1	; 0x800a6c <it3.2252+0x1>
     ed0:	10 92 6b 0a 	sts	0x0A6B, r1	; 0x800a6b <it3.2252>
			it42 = it42 + 1;;
     ed4:	80 91 80 0c 	lds	r24, 0x0C80	; 0x800c80 <it42>
     ed8:	8f 5f       	subi	r24, 0xFF	; 255
     eda:	80 93 80 0c 	sts	0x0C80, r24	; 0x800c80 <it42>
			if (it42 == playList) {
     ede:	90 e0       	ldi	r25, 0x00	; 0
     ee0:	a0 e0       	ldi	r26, 0x00	; 0
     ee2:	b0 e0       	ldi	r27, 0x00	; 0
     ee4:	40 91 00 01 	lds	r20, 0x0100	; 0x800100 <__DATA_REGION_ORIGIN__>
     ee8:	50 91 01 01 	lds	r21, 0x0101	; 0x800101 <__DATA_REGION_ORIGIN__+0x1>
     eec:	60 91 02 01 	lds	r22, 0x0102	; 0x800102 <__DATA_REGION_ORIGIN__+0x2>
     ef0:	70 91 03 01 	lds	r23, 0x0103	; 0x800103 <__DATA_REGION_ORIGIN__+0x3>
     ef4:	84 17       	cp	r24, r20
     ef6:	95 07       	cpc	r25, r21
     ef8:	a6 07       	cpc	r26, r22
     efa:	b7 07       	cpc	r27, r23
     efc:	09 f0       	breq	.+2      	; 0xf00 <bassTick+0x134>
     efe:	d1 c2       	rjmp	.+1442   	; 0x14a2 <bassTick+0x6d6>
				it42 = 0;
     f00:	10 92 80 0c 	sts	0x0C80, r1	; 0x800c80 <it42>
     f04:	ce c2       	rjmp	.+1436   	; 0x14a2 <bassTick+0x6d6>
			}
			state = Bplay;
			break;
		}
		if (playlistBas[it42][it1][it2] == -1) {
     f06:	60 91 80 0c 	lds	r22, 0x0C80	; 0x800c80 <it42>
     f0a:	26 2f       	mov	r18, r22
     f0c:	30 e0       	ldi	r19, 0x00	; 0
     f0e:	f9 01       	movw	r30, r18
     f10:	ee 0f       	add	r30, r30
     f12:	ff 1f       	adc	r31, r31
     f14:	eb 5e       	subi	r30, 0xEB	; 235
     f16:	fe 4f       	sbci	r31, 0xFE	; 254
     f18:	40 81       	ld	r20, Z
     f1a:	51 81       	ldd	r21, Z+1	; 0x01
     f1c:	00 91 6f 0a 	lds	r16, 0x0A6F	; 0x800a6f <it1.2250>
     f20:	10 91 70 0a 	lds	r17, 0x0A70	; 0x800a70 <it1.2250+0x1>
     f24:	d8 01       	movw	r26, r16
     f26:	aa 0f       	add	r26, r26
     f28:	bb 1f       	adc	r27, r27
     f2a:	a4 0f       	add	r26, r20
     f2c:	b5 1f       	adc	r27, r21
     f2e:	e0 91 6d 0a 	lds	r30, 0x0A6D	; 0x800a6d <it2.2251>
     f32:	f0 91 6e 0a 	lds	r31, 0x0A6E	; 0x800a6e <it2.2251+0x1>
     f36:	cf 01       	movw	r24, r30
     f38:	88 0f       	add	r24, r24
     f3a:	99 1f       	adc	r25, r25
     f3c:	ed 91       	ld	r30, X+
     f3e:	fc 91       	ld	r31, X
     f40:	e8 0f       	add	r30, r24
     f42:	f9 1f       	adc	r31, r25
     f44:	80 81       	ld	r24, Z
     f46:	91 81       	ldd	r25, Z+1	; 0x01
     f48:	01 96       	adiw	r24, 0x01	; 1
     f4a:	51 f4       	brne	.+20     	; 0xf60 <bassTick+0x194>
			it1 = it1 + 1;
     f4c:	0f 5f       	subi	r16, 0xFF	; 255
     f4e:	1f 4f       	sbci	r17, 0xFF	; 255
     f50:	10 93 70 0a 	sts	0x0A70, r17	; 0x800a70 <it1.2250+0x1>
     f54:	00 93 6f 0a 	sts	0x0A6F, r16	; 0x800a6f <it1.2250>
			it2 = 0;
     f58:	10 92 6e 0a 	sts	0x0A6E, r1	; 0x800a6e <it2.2251+0x1>
     f5c:	10 92 6d 0a 	sts	0x0A6D, r1	; 0x800a6d <it2.2251>
		}
		if (it1 == numRows[it42]) {
     f60:	80 91 6f 0a 	lds	r24, 0x0A6F	; 0x800a6f <it1.2250>
     f64:	90 91 70 0a 	lds	r25, 0x0A70	; 0x800a70 <it1.2250+0x1>
     f68:	f9 01       	movw	r30, r18
     f6a:	ea 5f       	subi	r30, 0xFA	; 250
     f6c:	fe 4f       	sbci	r31, 0xFE	; 254
     f6e:	20 81       	ld	r18, Z
     f70:	30 e0       	ldi	r19, 0x00	; 0
     f72:	28 17       	cp	r18, r24
     f74:	39 07       	cpc	r19, r25
     f76:	41 f5       	brne	.+80     	; 0xfc8 <bassTick+0x1fc>
			songDone = 1;
     f78:	81 e0       	ldi	r24, 0x01	; 1
     f7a:	80 93 04 01 	sts	0x0104, r24	; 0x800104 <songDone>
			state = Bwait;
			it1 = 0;
     f7e:	10 92 70 0a 	sts	0x0A70, r1	; 0x800a70 <it1.2250+0x1>
     f82:	10 92 6f 0a 	sts	0x0A6F, r1	; 0x800a6f <it1.2250>
			it2 = 0;
     f86:	10 92 6e 0a 	sts	0x0A6E, r1	; 0x800a6e <it2.2251+0x1>
     f8a:	10 92 6d 0a 	sts	0x0A6D, r1	; 0x800a6d <it2.2251>
			it3 = 0;
     f8e:	10 92 6c 0a 	sts	0x0A6C, r1	; 0x800a6c <it3.2252+0x1>
     f92:	10 92 6b 0a 	sts	0x0A6B, r1	; 0x800a6b <it3.2252>
			it42 = it42 + 1;
     f96:	86 0f       	add	r24, r22
     f98:	80 93 80 0c 	sts	0x0C80, r24	; 0x800c80 <it42>
			if (it42 == playList) {
     f9c:	90 e0       	ldi	r25, 0x00	; 0
     f9e:	a0 e0       	ldi	r26, 0x00	; 0
     fa0:	b0 e0       	ldi	r27, 0x00	; 0
     fa2:	40 91 00 01 	lds	r20, 0x0100	; 0x800100 <__DATA_REGION_ORIGIN__>
     fa6:	50 91 01 01 	lds	r21, 0x0101	; 0x800101 <__DATA_REGION_ORIGIN__+0x1>
     faa:	60 91 02 01 	lds	r22, 0x0102	; 0x800102 <__DATA_REGION_ORIGIN__+0x2>
     fae:	70 91 03 01 	lds	r23, 0x0103	; 0x800103 <__DATA_REGION_ORIGIN__+0x3>
     fb2:	84 17       	cp	r24, r20
     fb4:	95 07       	cpc	r25, r21
     fb6:	a6 07       	cpc	r26, r22
     fb8:	b7 07       	cpc	r27, r23
     fba:	09 f0       	breq	.+2      	; 0xfbe <bassTick+0x1f2>
     fbc:	6a c2       	rjmp	.+1236   	; 0x1492 <bassTick+0x6c6>
				it42 = 0;
     fbe:	10 92 80 0c 	sts	0x0C80, r1	; 0x800c80 <it42>
			it1 = it1 + 1;
			it2 = 0;
		}
		if (it1 == numRows[it42]) {
			songDone = 1;
			state = Bwait;
     fc2:	c1 e0       	ldi	r28, 0x01	; 1
     fc4:	d0 e0       	ldi	r29, 0x00	; 0
     fc6:	6d c2       	rjmp	.+1242   	; 0x14a2 <bassTick+0x6d6>
			}
			break;
		}
		//playB(playlistBas[it42][it1][it2]);
		//playB(playlistBas[it4][it1][it2]);
		if (it42 == 0) {
     fc8:	61 11       	cpse	r22, r1
     fca:	17 c0       	rjmp	.+46     	; 0xffa <bassTick+0x22e>
			playB(playlistBas[it42][it1][it2]);
     fcc:	88 0f       	add	r24, r24
     fce:	99 1f       	adc	r25, r25
     fd0:	fa 01       	movw	r30, r20
     fd2:	e8 0f       	add	r30, r24
     fd4:	f9 1f       	adc	r31, r25
     fd6:	80 91 6d 0a 	lds	r24, 0x0A6D	; 0x800a6d <it2.2251>
     fda:	90 91 6e 0a 	lds	r25, 0x0A6E	; 0x800a6e <it2.2251+0x1>
     fde:	88 0f       	add	r24, r24
     fe0:	99 1f       	adc	r25, r25
     fe2:	01 90       	ld	r0, Z+
     fe4:	f0 81       	ld	r31, Z
     fe6:	e0 2d       	mov	r30, r0
     fe8:	e8 0f       	add	r30, r24
     fea:	f9 1f       	adc	r31, r25
     fec:	80 81       	ld	r24, Z
     fee:	91 81       	ldd	r25, Z+1	; 0x01
			DisplaySong1();
     ff0:	26 db       	rcall	.-2484   	; 0x63e <playB>
     ff2:	32 db       	rcall	.-2460   	; 0x658 <DisplaySong1>
			state = Bl;
     ff4:	c3 e0       	ldi	r28, 0x03	; 3
     ff6:	d0 e0       	ldi	r29, 0x00	; 0
     ff8:	54 c2       	rjmp	.+1192   	; 0x14a2 <bassTick+0x6d6>
		}
		else if (it42 == 1) {
     ffa:	61 30       	cpi	r22, 0x01	; 1
     ffc:	b9 f4       	brne	.+46     	; 0x102c <bassTick+0x260>
			playB(playlistBas[it42][it1][it2]);
     ffe:	88 0f       	add	r24, r24
    1000:	99 1f       	adc	r25, r25
    1002:	fa 01       	movw	r30, r20
    1004:	e8 0f       	add	r30, r24
    1006:	f9 1f       	adc	r31, r25
    1008:	80 91 6d 0a 	lds	r24, 0x0A6D	; 0x800a6d <it2.2251>
    100c:	90 91 6e 0a 	lds	r25, 0x0A6E	; 0x800a6e <it2.2251+0x1>
    1010:	88 0f       	add	r24, r24
    1012:	99 1f       	adc	r25, r25
    1014:	01 90       	ld	r0, Z+
    1016:	f0 81       	ld	r31, Z
    1018:	e0 2d       	mov	r30, r0
    101a:	e8 0f       	add	r30, r24
    101c:	f9 1f       	adc	r31, r25
    101e:	80 81       	ld	r24, Z
    1020:	91 81       	ldd	r25, Z+1	; 0x01
			DisplaySong2();
    1022:	0d db       	rcall	.-2534   	; 0x63e <playB>
    1024:	2a db       	rcall	.-2476   	; 0x67a <DisplaySong2>
			state = Bl;
    1026:	c3 e0       	ldi	r28, 0x03	; 3
    1028:	d0 e0       	ldi	r29, 0x00	; 0
    102a:	3b c2       	rjmp	.+1142   	; 0x14a2 <bassTick+0x6d6>
		}
		else if (it42 == 2) {
    102c:	62 30       	cpi	r22, 0x02	; 2
    102e:	09 f0       	breq	.+2      	; 0x1032 <bassTick+0x266>
    1030:	38 c2       	rjmp	.+1136   	; 0x14a2 <bassTick+0x6d6>
			playB(playlistBas[it42][it1][it2]);
    1032:	88 0f       	add	r24, r24
    1034:	99 1f       	adc	r25, r25
    1036:	fa 01       	movw	r30, r20
    1038:	e8 0f       	add	r30, r24
    103a:	f9 1f       	adc	r31, r25
    103c:	80 91 6d 0a 	lds	r24, 0x0A6D	; 0x800a6d <it2.2251>
    1040:	90 91 6e 0a 	lds	r25, 0x0A6E	; 0x800a6e <it2.2251+0x1>
    1044:	88 0f       	add	r24, r24
    1046:	99 1f       	adc	r25, r25
    1048:	01 90       	ld	r0, Z+
    104a:	f0 81       	ld	r31, Z
    104c:	e0 2d       	mov	r30, r0
    104e:	e8 0f       	add	r30, r24
    1050:	f9 1f       	adc	r31, r25
    1052:	80 81       	ld	r24, Z
    1054:	91 81       	ldd	r25, Z+1	; 0x01
			DisplaySong3();
    1056:	f3 da       	rcall	.-2586   	; 0x63e <playB>
			state = Bl;
    1058:	21 db       	rcall	.-2494   	; 0x69c <DisplaySong3>
    105a:	c3 e0       	ldi	r28, 0x03	; 3
    105c:	d0 e0       	ldi	r29, 0x00	; 0
		
		//state = Bl;
		break;

		case Bl:
		if (paused) {
    105e:	21 c2       	rjmp	.+1090   	; 0x14a2 <bassTick+0x6d6>
    1060:	80 91 05 01 	lds	r24, 0x0105	; 0x800105 <paused>
    1064:	88 23       	and	r24, r24
			silenceB();
    1066:	41 f0       	breq	.+16     	; 0x1078 <bassTick+0x2ac>
    1068:	f2 da       	rcall	.-2588   	; 0x64e <silenceB>
			DisplayPaused();
    106a:	29 db       	rcall	.-2478   	; 0x6be <DisplayPaused>
    106c:	83 e0       	ldi	r24, 0x03	; 3
			placeHolder = state;
    106e:	80 93 6a 0a 	sts	0x0A6A, r24	; 0x800a6a <placeHolder.2253>
    1072:	c5 e0       	ldi	r28, 0x05	; 5
			state = Bp;
    1074:	d0 e0       	ldi	r29, 0x00	; 0
    1076:	15 c2       	rjmp	.+1066   	; 0x14a2 <bassTick+0x6d6>
			break;
    1078:	80 91 82 0c 	lds	r24, 0x0C82	; 0x800c82 <prevSong>
		}
		if (prevSong && (it1 == 0)) {
    107c:	88 23       	and	r24, r24
    107e:	99 f1       	breq	.+102    	; 0x10e6 <bassTick+0x31a>
    1080:	80 91 6f 0a 	lds	r24, 0x0A6F	; 0x800a6f <it1.2250>
    1084:	90 91 70 0a 	lds	r25, 0x0A70	; 0x800a70 <it1.2250+0x1>
    1088:	89 2b       	or	r24, r25
    108a:	f1 f4       	brne	.+60     	; 0x10c8 <bassTick+0x2fc>
    108c:	10 92 70 0a 	sts	0x0A70, r1	; 0x800a70 <it1.2250+0x1>
			it1 = 0;
    1090:	10 92 6f 0a 	sts	0x0A6F, r1	; 0x800a6f <it1.2250>
    1094:	10 92 6e 0a 	sts	0x0A6E, r1	; 0x800a6e <it2.2251+0x1>
			it2 = 0;
    1098:	10 92 6d 0a 	sts	0x0A6D, r1	; 0x800a6d <it2.2251>
    109c:	10 92 6c 0a 	sts	0x0A6C, r1	; 0x800a6c <it3.2252+0x1>
			it3 = 0;
    10a0:	10 92 6b 0a 	sts	0x0A6B, r1	; 0x800a6b <it3.2252>
    10a4:	80 91 80 0c 	lds	r24, 0x0C80	; 0x800c80 <it42>
			if (it42 == 0) {
    10a8:	81 11       	cpse	r24, r1
    10aa:	08 c0       	rjmp	.+16     	; 0x10bc <bassTick+0x2f0>
    10ac:	80 91 00 01 	lds	r24, 0x0100	; 0x800100 <__DATA_REGION_ORIGIN__>
				it42 = playList - 1;
    10b0:	81 50       	subi	r24, 0x01	; 1
    10b2:	80 93 80 0c 	sts	0x0C80, r24	; 0x800c80 <it42>
    10b6:	c2 e0       	ldi	r28, 0x02	; 2
			}
			else {
				it42 = it42 - 1;
			}
			state = Bplay;
    10b8:	d0 e0       	ldi	r29, 0x00	; 0
    10ba:	f3 c1       	rjmp	.+998    	; 0x14a2 <bassTick+0x6d6>
    10bc:	81 50       	subi	r24, 0x01	; 1
			it3 = 0;
			if (it42 == 0) {
				it42 = playList - 1;
			}
			else {
				it42 = it42 - 1;
    10be:	80 93 80 0c 	sts	0x0C80, r24	; 0x800c80 <it42>
    10c2:	c2 e0       	ldi	r28, 0x02	; 2
			}
			state = Bplay;
    10c4:	d0 e0       	ldi	r29, 0x00	; 0
    10c6:	ed c1       	rjmp	.+986    	; 0x14a2 <bassTick+0x6d6>
    10c8:	10 92 70 0a 	sts	0x0A70, r1	; 0x800a70 <it1.2250+0x1>
			break;
			}
    else if (prevSong){
			it1 = 0;
    10cc:	10 92 6f 0a 	sts	0x0A6F, r1	; 0x800a6f <it1.2250>
    10d0:	10 92 6e 0a 	sts	0x0A6E, r1	; 0x800a6e <it2.2251+0x1>
			it2 = 0;
    10d4:	10 92 6d 0a 	sts	0x0A6D, r1	; 0x800a6d <it2.2251>
    10d8:	10 92 6c 0a 	sts	0x0A6C, r1	; 0x800a6c <it3.2252+0x1>
			it3 = 0;
    10dc:	10 92 6b 0a 	sts	0x0A6B, r1	; 0x800a6b <it3.2252>
    10e0:	c2 e0       	ldi	r28, 0x02	; 2
			state = Bplay;
    10e2:	d0 e0       	ldi	r29, 0x00	; 0
    10e4:	de c1       	rjmp	.+956    	; 0x14a2 <bassTick+0x6d6>
			break;
    10e6:	80 91 7f 0c 	lds	r24, 0x0C7F	; 0x800c7f <nextSong>
		}
		if (nextSong) {
    10ea:	88 23       	and	r24, r24
    10ec:	39 f1       	breq	.+78     	; 0x113c <bassTick+0x370>
    10ee:	10 92 70 0a 	sts	0x0A70, r1	; 0x800a70 <it1.2250+0x1>
			it1 = 0;
    10f2:	10 92 6f 0a 	sts	0x0A6F, r1	; 0x800a6f <it1.2250>
    10f6:	10 92 6e 0a 	sts	0x0A6E, r1	; 0x800a6e <it2.2251+0x1>
			it2 = 0;
    10fa:	10 92 6d 0a 	sts	0x0A6D, r1	; 0x800a6d <it2.2251>
    10fe:	10 92 6c 0a 	sts	0x0A6C, r1	; 0x800a6c <it3.2252+0x1>
			it3 = 0;
    1102:	10 92 6b 0a 	sts	0x0A6B, r1	; 0x800a6b <it3.2252>
    1106:	80 91 80 0c 	lds	r24, 0x0C80	; 0x800c80 <it42>
			it42 = it42 + 1;
    110a:	8f 5f       	subi	r24, 0xFF	; 255
    110c:	80 93 80 0c 	sts	0x0C80, r24	; 0x800c80 <it42>
    1110:	90 e0       	ldi	r25, 0x00	; 0
			if (it42 == playList) {
    1112:	a0 e0       	ldi	r26, 0x00	; 0
    1114:	b0 e0       	ldi	r27, 0x00	; 0
    1116:	40 91 00 01 	lds	r20, 0x0100	; 0x800100 <__DATA_REGION_ORIGIN__>
    111a:	50 91 01 01 	lds	r21, 0x0101	; 0x800101 <__DATA_REGION_ORIGIN__+0x1>
    111e:	60 91 02 01 	lds	r22, 0x0102	; 0x800102 <__DATA_REGION_ORIGIN__+0x2>
    1122:	70 91 03 01 	lds	r23, 0x0103	; 0x800103 <__DATA_REGION_ORIGIN__+0x3>
    1126:	84 17       	cp	r24, r20
    1128:	95 07       	cpc	r25, r21
    112a:	a6 07       	cpc	r26, r22
    112c:	b7 07       	cpc	r27, r23
    112e:	09 f0       	breq	.+2      	; 0x1132 <bassTick+0x366>
    1130:	b3 c1       	rjmp	.+870    	; 0x1498 <bassTick+0x6cc>
    1132:	10 92 80 0c 	sts	0x0C80, r1	; 0x800c80 <it42>
				it42 = 0;
    1136:	c2 e0       	ldi	r28, 0x02	; 2
			}
			state = Bplay;
    1138:	d0 e0       	ldi	r29, 0x00	; 0
    113a:	b3 c1       	rjmp	.+870    	; 0x14a2 <bassTick+0x6d6>
    113c:	20 91 6b 0a 	lds	r18, 0x0A6B	; 0x800a6b <it3.2252>
			break;
		}
		if (it3 < playlistBasNL[it42][it1][it2]) {
    1140:	30 91 6c 0a 	lds	r19, 0x0A6C	; 0x800a6c <it3.2252+0x1>
    1144:	e0 91 80 0c 	lds	r30, 0x0C80	; 0x800c80 <it42>
    1148:	f0 e0       	ldi	r31, 0x00	; 0
    114a:	ee 0f       	add	r30, r30
    114c:	ff 1f       	adc	r31, r31
    114e:	e1 5f       	subi	r30, 0xF1	; 241
    1150:	fe 4f       	sbci	r31, 0xFE	; 254
    1152:	a0 91 6f 0a 	lds	r26, 0x0A6F	; 0x800a6f <it1.2250>
    1156:	b0 91 70 0a 	lds	r27, 0x0A70	; 0x800a70 <it1.2250+0x1>
    115a:	cd 01       	movw	r24, r26
    115c:	88 0f       	add	r24, r24
    115e:	99 1f       	adc	r25, r25
    1160:	a0 81       	ld	r26, Z
    1162:	b1 81       	ldd	r27, Z+1	; 0x01
    1164:	a8 0f       	add	r26, r24
    1166:	b9 1f       	adc	r27, r25
    1168:	e0 91 6d 0a 	lds	r30, 0x0A6D	; 0x800a6d <it2.2251>
    116c:	f0 91 6e 0a 	lds	r31, 0x0A6E	; 0x800a6e <it2.2251+0x1>
    1170:	cf 01       	movw	r24, r30
    1172:	88 0f       	add	r24, r24
    1174:	99 1f       	adc	r25, r25
    1176:	ed 91       	ld	r30, X+
    1178:	fc 91       	ld	r31, X
    117a:	e8 0f       	add	r30, r24
    117c:	f9 1f       	adc	r31, r25
    117e:	80 81       	ld	r24, Z
    1180:	91 81       	ldd	r25, Z+1	; 0x01
    1182:	28 17       	cp	r18, r24
    1184:	39 07       	cpc	r19, r25
    1186:	38 f4       	brcc	.+14     	; 0x1196 <bassTick+0x3ca>
    1188:	2f 5f       	subi	r18, 0xFF	; 255
			it3 = it3 + 1;
    118a:	3f 4f       	sbci	r19, 0xFF	; 255
    118c:	30 93 6c 0a 	sts	0x0A6C, r19	; 0x800a6c <it3.2252+0x1>
    1190:	20 93 6b 0a 	sts	0x0A6B, r18	; 0x800a6b <it3.2252>
    1194:	86 c1       	rjmp	.+780    	; 0x14a2 <bassTick+0x6d6>
			state = Bl;
		}
		else {
			it3 = 0;
    1196:	10 92 6c 0a 	sts	0x0A6C, r1	; 0x800a6c <it3.2252+0x1>
			silenceB();
    119a:	10 92 6b 0a 	sts	0x0A6B, r1	; 0x800a6b <it3.2252>
			state = Br;
    119e:	57 da       	rcall	.-2898   	; 0x64e <silenceB>
    11a0:	c4 e0       	ldi	r28, 0x04	; 4
    11a2:	d0 e0       	ldi	r29, 0x00	; 0
			DisplaySong3();
		}*/
		break;

		case Br:
		if (paused) {
    11a4:	7e c1       	rjmp	.+764    	; 0x14a2 <bassTick+0x6d6>
    11a6:	80 91 05 01 	lds	r24, 0x0105	; 0x800105 <paused>
    11aa:	88 23       	and	r24, r24
			silenceB();
    11ac:	41 f0       	breq	.+16     	; 0x11be <bassTick+0x3f2>
    11ae:	4f da       	rcall	.-2914   	; 0x64e <silenceB>
			DisplayPaused();
    11b0:	86 da       	rcall	.-2804   	; 0x6be <DisplayPaused>
    11b2:	84 e0       	ldi	r24, 0x04	; 4
			placeHolder = state;
    11b4:	80 93 6a 0a 	sts	0x0A6A, r24	; 0x800a6a <placeHolder.2253>
    11b8:	c5 e0       	ldi	r28, 0x05	; 5
			state = Bp;
    11ba:	d0 e0       	ldi	r29, 0x00	; 0
    11bc:	72 c1       	rjmp	.+740    	; 0x14a2 <bassTick+0x6d6>
			break;
    11be:	80 91 82 0c 	lds	r24, 0x0C82	; 0x800c82 <prevSong>
		}
		if (prevSong && (it1 == 0)) {
    11c2:	88 23       	and	r24, r24
    11c4:	99 f1       	breq	.+102    	; 0x122c <bassTick+0x460>
    11c6:	80 91 6f 0a 	lds	r24, 0x0A6F	; 0x800a6f <it1.2250>
    11ca:	90 91 70 0a 	lds	r25, 0x0A70	; 0x800a70 <it1.2250+0x1>
    11ce:	89 2b       	or	r24, r25
    11d0:	f1 f4       	brne	.+60     	; 0x120e <bassTick+0x442>
    11d2:	10 92 70 0a 	sts	0x0A70, r1	; 0x800a70 <it1.2250+0x1>
			it1 = 0;
    11d6:	10 92 6f 0a 	sts	0x0A6F, r1	; 0x800a6f <it1.2250>
    11da:	10 92 6e 0a 	sts	0x0A6E, r1	; 0x800a6e <it2.2251+0x1>
			it2 = 0;
    11de:	10 92 6d 0a 	sts	0x0A6D, r1	; 0x800a6d <it2.2251>
    11e2:	10 92 6c 0a 	sts	0x0A6C, r1	; 0x800a6c <it3.2252+0x1>
			it3 = 0;
    11e6:	10 92 6b 0a 	sts	0x0A6B, r1	; 0x800a6b <it3.2252>
    11ea:	80 91 80 0c 	lds	r24, 0x0C80	; 0x800c80 <it42>
			if (it42 == 0) {
    11ee:	81 11       	cpse	r24, r1
    11f0:	08 c0       	rjmp	.+16     	; 0x1202 <bassTick+0x436>
    11f2:	80 91 00 01 	lds	r24, 0x0100	; 0x800100 <__DATA_REGION_ORIGIN__>
				it42 = playList - 1;
    11f6:	81 50       	subi	r24, 0x01	; 1
    11f8:	80 93 80 0c 	sts	0x0C80, r24	; 0x800c80 <it42>
    11fc:	c2 e0       	ldi	r28, 0x02	; 2
				}
      else {
				it42 = it42 - 1;
			}
			state = Bplay;
    11fe:	d0 e0       	ldi	r29, 0x00	; 0
    1200:	50 c1       	rjmp	.+672    	; 0x14a2 <bassTick+0x6d6>
    1202:	81 50       	subi	r24, 0x01	; 1
			it3 = 0;
			if (it42 == 0) {
				it42 = playList - 1;
				}
      else {
				it42 = it42 - 1;
    1204:	80 93 80 0c 	sts	0x0C80, r24	; 0x800c80 <it42>
    1208:	c2 e0       	ldi	r28, 0x02	; 2
			}
			state = Bplay;
    120a:	d0 e0       	ldi	r29, 0x00	; 0
    120c:	4a c1       	rjmp	.+660    	; 0x14a2 <bassTick+0x6d6>
    120e:	10 92 70 0a 	sts	0x0A70, r1	; 0x800a70 <it1.2250+0x1>
			break;
			}
      else if (prevSong){
			it1 = 0;
    1212:	10 92 6f 0a 	sts	0x0A6F, r1	; 0x800a6f <it1.2250>
    1216:	10 92 6e 0a 	sts	0x0A6E, r1	; 0x800a6e <it2.2251+0x1>
			it2 = 0;
    121a:	10 92 6d 0a 	sts	0x0A6D, r1	; 0x800a6d <it2.2251>
    121e:	10 92 6c 0a 	sts	0x0A6C, r1	; 0x800a6c <it3.2252+0x1>
			it3 = 0;
    1222:	10 92 6b 0a 	sts	0x0A6B, r1	; 0x800a6b <it3.2252>
    1226:	c2 e0       	ldi	r28, 0x02	; 2
			state = Bplay;
    1228:	d0 e0       	ldi	r29, 0x00	; 0
    122a:	3b c1       	rjmp	.+630    	; 0x14a2 <bassTick+0x6d6>
			break;
    122c:	80 91 7f 0c 	lds	r24, 0x0C7F	; 0x800c7f <nextSong>
		}
		if (nextSong) {
    1230:	88 23       	and	r24, r24
    1232:	39 f1       	breq	.+78     	; 0x1282 <bassTick+0x4b6>
    1234:	10 92 70 0a 	sts	0x0A70, r1	; 0x800a70 <it1.2250+0x1>
			it1 = 0;
    1238:	10 92 6f 0a 	sts	0x0A6F, r1	; 0x800a6f <it1.2250>
    123c:	10 92 6e 0a 	sts	0x0A6E, r1	; 0x800a6e <it2.2251+0x1>
			it2 = 0;
    1240:	10 92 6d 0a 	sts	0x0A6D, r1	; 0x800a6d <it2.2251>
    1244:	10 92 6c 0a 	sts	0x0A6C, r1	; 0x800a6c <it3.2252+0x1>
			it3 = 0;
    1248:	10 92 6b 0a 	sts	0x0A6B, r1	; 0x800a6b <it3.2252>
    124c:	80 91 80 0c 	lds	r24, 0x0C80	; 0x800c80 <it42>
			it42 = it42 + 1;
    1250:	8f 5f       	subi	r24, 0xFF	; 255
    1252:	80 93 80 0c 	sts	0x0C80, r24	; 0x800c80 <it42>
    1256:	90 e0       	ldi	r25, 0x00	; 0
			if (it42 == playList) {
    1258:	a0 e0       	ldi	r26, 0x00	; 0
    125a:	b0 e0       	ldi	r27, 0x00	; 0
    125c:	40 91 00 01 	lds	r20, 0x0100	; 0x800100 <__DATA_REGION_ORIGIN__>
    1260:	50 91 01 01 	lds	r21, 0x0101	; 0x800101 <__DATA_REGION_ORIGIN__+0x1>
    1264:	60 91 02 01 	lds	r22, 0x0102	; 0x800102 <__DATA_REGION_ORIGIN__+0x2>
    1268:	70 91 03 01 	lds	r23, 0x0103	; 0x800103 <__DATA_REGION_ORIGIN__+0x3>
    126c:	84 17       	cp	r24, r20
    126e:	95 07       	cpc	r25, r21
    1270:	a6 07       	cpc	r26, r22
    1272:	b7 07       	cpc	r27, r23
    1274:	09 f0       	breq	.+2      	; 0x1278 <bassTick+0x4ac>
    1276:	13 c1       	rjmp	.+550    	; 0x149e <bassTick+0x6d2>
    1278:	10 92 80 0c 	sts	0x0C80, r1	; 0x800c80 <it42>
				it42 = 0;
    127c:	c2 e0       	ldi	r28, 0x02	; 2
			}
			state = Bplay;
    127e:	d0 e0       	ldi	r29, 0x00	; 0
    1280:	10 c1       	rjmp	.+544    	; 0x14a2 <bassTick+0x6d6>
    1282:	20 91 6d 0a 	lds	r18, 0x0A6D	; 0x800a6d <it2.2251>
			break;
		}
		if (it3 < playlistBasRL[it42][it1][it2]) {
    1286:	30 91 6e 0a 	lds	r19, 0x0A6E	; 0x800a6e <it2.2251+0x1>
    128a:	40 91 6b 0a 	lds	r20, 0x0A6B	; 0x800a6b <it3.2252>
    128e:	50 91 6c 0a 	lds	r21, 0x0A6C	; 0x800a6c <it3.2252+0x1>
    1292:	e0 91 80 0c 	lds	r30, 0x0C80	; 0x800c80 <it42>
    1296:	f0 e0       	ldi	r31, 0x00	; 0
    1298:	ee 0f       	add	r30, r30
    129a:	ff 1f       	adc	r31, r31
    129c:	e7 5f       	subi	r30, 0xF7	; 247
    129e:	fe 4f       	sbci	r31, 0xFE	; 254
    12a0:	80 91 6f 0a 	lds	r24, 0x0A6F	; 0x800a6f <it1.2250>
    12a4:	90 91 70 0a 	lds	r25, 0x0A70	; 0x800a70 <it1.2250+0x1>
    12a8:	88 0f       	add	r24, r24
    12aa:	99 1f       	adc	r25, r25
    12ac:	01 90       	ld	r0, Z+
    12ae:	f0 81       	ld	r31, Z
    12b0:	e0 2d       	mov	r30, r0
    12b2:	e8 0f       	add	r30, r24
    12b4:	f9 1f       	adc	r31, r25
    12b6:	c9 01       	movw	r24, r18
    12b8:	88 0f       	add	r24, r24
    12ba:	99 1f       	adc	r25, r25
    12bc:	01 90       	ld	r0, Z+
    12be:	f0 81       	ld	r31, Z
    12c0:	e0 2d       	mov	r30, r0
    12c2:	e8 0f       	add	r30, r24
    12c4:	f9 1f       	adc	r31, r25
    12c6:	80 81       	ld	r24, Z
    12c8:	91 81       	ldd	r25, Z+1	; 0x01
    12ca:	48 17       	cp	r20, r24
    12cc:	59 07       	cpc	r21, r25
    12ce:	38 f4       	brcc	.+14     	; 0x12de <bassTick+0x512>
    12d0:	4f 5f       	subi	r20, 0xFF	; 255
			it3 = it3 + 1;
    12d2:	5f 4f       	sbci	r21, 0xFF	; 255
    12d4:	50 93 6c 0a 	sts	0x0A6C, r21	; 0x800a6c <it3.2252+0x1>
    12d8:	40 93 6b 0a 	sts	0x0A6B, r20	; 0x800a6b <it3.2252>
    12dc:	e2 c0       	rjmp	.+452    	; 0x14a2 <bassTick+0x6d6>
    12de:	10 92 6c 0a 	sts	0x0A6C, r1	; 0x800a6c <it3.2252+0x1>
			state = Br;
			}
    else {
			it3 = 0;
    12e2:	10 92 6b 0a 	sts	0x0A6B, r1	; 0x800a6b <it3.2252>
    12e6:	2f 5f       	subi	r18, 0xFF	; 255
			it2 = it2 + 1;
    12e8:	3f 4f       	sbci	r19, 0xFF	; 255
    12ea:	30 93 6e 0a 	sts	0x0A6E, r19	; 0x800a6e <it2.2251+0x1>
    12ee:	20 93 6d 0a 	sts	0x0A6D, r18	; 0x800a6d <it2.2251>
    12f2:	c2 e0       	ldi	r28, 0x02	; 2
			state = Bplay;
    12f4:	d0 e0       	ldi	r29, 0x00	; 0
    12f6:	d5 c0       	rjmp	.+426    	; 0x14a2 <bassTick+0x6d6>
    12f8:	80 91 82 0c 	lds	r24, 0x0C82	; 0x800c82 <prevSong>
		}
		break;

		case Bp:
		if (prevSong && (it1 == 0)) {
    12fc:	88 23       	and	r24, r24
    12fe:	a9 f1       	breq	.+106    	; 0x136a <bassTick+0x59e>
    1300:	80 91 6f 0a 	lds	r24, 0x0A6F	; 0x800a6f <it1.2250>
    1304:	90 91 70 0a 	lds	r25, 0x0A70	; 0x800a70 <it1.2250+0x1>
    1308:	89 2b       	or	r24, r25
    130a:	f1 f4       	brne	.+60     	; 0x1348 <bassTick+0x57c>
    130c:	10 92 70 0a 	sts	0x0A70, r1	; 0x800a70 <it1.2250+0x1>
			it1 = 0;
    1310:	10 92 6f 0a 	sts	0x0A6F, r1	; 0x800a6f <it1.2250>
    1314:	10 92 6e 0a 	sts	0x0A6E, r1	; 0x800a6e <it2.2251+0x1>
			it2 = 0;
    1318:	10 92 6d 0a 	sts	0x0A6D, r1	; 0x800a6d <it2.2251>
    131c:	10 92 6c 0a 	sts	0x0A6C, r1	; 0x800a6c <it3.2252+0x1>
			it3 = 0;
    1320:	10 92 6b 0a 	sts	0x0A6B, r1	; 0x800a6b <it3.2252>
    1324:	80 91 80 0c 	lds	r24, 0x0C80	; 0x800c80 <it42>
			if (it42 == 0) {
    1328:	81 11       	cpse	r24, r1
    132a:	06 c0       	rjmp	.+12     	; 0x1338 <bassTick+0x56c>
    132c:	80 91 00 01 	lds	r24, 0x0100	; 0x800100 <__DATA_REGION_ORIGIN__>
				it42 = playList - 1;
    1330:	81 50       	subi	r24, 0x01	; 1
    1332:	80 93 80 0c 	sts	0x0C80, r24	; 0x800c80 <it42>
    1336:	03 c0       	rjmp	.+6      	; 0x133e <bassTick+0x572>
    1338:	81 50       	subi	r24, 0x01	; 1
				}
      else {
				it42 = it42 - 1;
    133a:	80 93 80 0c 	sts	0x0C80, r24	; 0x800c80 <it42>
    133e:	10 92 05 01 	sts	0x0105, r1	; 0x800105 <paused>
			}
			paused = 0;
    1342:	c2 e0       	ldi	r28, 0x02	; 2
			state = Bplay;
    1344:	d0 e0       	ldi	r29, 0x00	; 0
    1346:	ad c0       	rjmp	.+346    	; 0x14a2 <bassTick+0x6d6>
			break;
    1348:	10 92 70 0a 	sts	0x0A70, r1	; 0x800a70 <it1.2250+0x1>
			} else if (prevSong){
			it1 = 0;
    134c:	10 92 6f 0a 	sts	0x0A6F, r1	; 0x800a6f <it1.2250>
    1350:	10 92 6e 0a 	sts	0x0A6E, r1	; 0x800a6e <it2.2251+0x1>
			it2 = 0;
    1354:	10 92 6d 0a 	sts	0x0A6D, r1	; 0x800a6d <it2.2251>
    1358:	10 92 6c 0a 	sts	0x0A6C, r1	; 0x800a6c <it3.2252+0x1>
			it3 = 0;
    135c:	10 92 6b 0a 	sts	0x0A6B, r1	; 0x800a6b <it3.2252>
    1360:	10 92 05 01 	sts	0x0105, r1	; 0x800105 <paused>
			paused = 0;
    1364:	c2 e0       	ldi	r28, 0x02	; 2
			state = Bplay;
    1366:	d0 e0       	ldi	r29, 0x00	; 0
    1368:	9c c0       	rjmp	.+312    	; 0x14a2 <bassTick+0x6d6>
			break;
    136a:	80 91 7f 0c 	lds	r24, 0x0C7F	; 0x800c7f <nextSong>
		}
		if (nextSong) {
    136e:	88 23       	and	r24, r24
    1370:	41 f1       	breq	.+80     	; 0x13c2 <bassTick+0x5f6>
    1372:	10 92 70 0a 	sts	0x0A70, r1	; 0x800a70 <it1.2250+0x1>
			it1 = 0;
    1376:	10 92 6f 0a 	sts	0x0A6F, r1	; 0x800a6f <it1.2250>
    137a:	10 92 6e 0a 	sts	0x0A6E, r1	; 0x800a6e <it2.2251+0x1>
			it2 = 0;
    137e:	10 92 6d 0a 	sts	0x0A6D, r1	; 0x800a6d <it2.2251>
    1382:	10 92 6c 0a 	sts	0x0A6C, r1	; 0x800a6c <it3.2252+0x1>
			it3 = 0;
    1386:	10 92 6b 0a 	sts	0x0A6B, r1	; 0x800a6b <it3.2252>
    138a:	80 91 80 0c 	lds	r24, 0x0C80	; 0x800c80 <it42>
			it42 = it42 + 1;
    138e:	8f 5f       	subi	r24, 0xFF	; 255
    1390:	80 93 80 0c 	sts	0x0C80, r24	; 0x800c80 <it42>
    1394:	90 e0       	ldi	r25, 0x00	; 0
			if (it42 == playList) {
    1396:	a0 e0       	ldi	r26, 0x00	; 0
    1398:	b0 e0       	ldi	r27, 0x00	; 0
    139a:	40 91 00 01 	lds	r20, 0x0100	; 0x800100 <__DATA_REGION_ORIGIN__>
    139e:	50 91 01 01 	lds	r21, 0x0101	; 0x800101 <__DATA_REGION_ORIGIN__+0x1>
    13a2:	60 91 02 01 	lds	r22, 0x0102	; 0x800102 <__DATA_REGION_ORIGIN__+0x2>
    13a6:	70 91 03 01 	lds	r23, 0x0103	; 0x800103 <__DATA_REGION_ORIGIN__+0x3>
    13aa:	84 17       	cp	r24, r20
    13ac:	95 07       	cpc	r25, r21
    13ae:	a6 07       	cpc	r26, r22
    13b0:	b7 07       	cpc	r27, r23
    13b2:	11 f4       	brne	.+4      	; 0x13b8 <bassTick+0x5ec>
				it42 = 0;
    13b4:	10 92 80 0c 	sts	0x0C80, r1	; 0x800c80 <it42>
			}
			paused = 0;
    13b8:	10 92 05 01 	sts	0x0105, r1	; 0x800105 <paused>
			state = Bplay;
    13bc:	c2 e0       	ldi	r28, 0x02	; 2
    13be:	d0 e0       	ldi	r29, 0x00	; 0
			break;
    13c0:	70 c0       	rjmp	.+224    	; 0x14a2 <bassTick+0x6d6>
		}
		if (paused) {
    13c2:	80 91 05 01 	lds	r24, 0x0105	; 0x800105 <paused>
    13c6:	88 23       	and	r24, r24
    13c8:	11 f0       	breq	.+4      	; 0x13ce <bassTick+0x602>
			
			state = Bp;
			DisplayPaused();
    13ca:	79 d9       	rcall	.-3342   	; 0x6be <DisplayPaused>
    13cc:	6a c0       	rjmp	.+212    	; 0x14a2 <bassTick+0x6d6>
    13ce:	c0 91 6a 0a 	lds	r28, 0x0A6A	; 0x800a6a <placeHolder.2253>
			}
    else {
			if (placeHolder == Bl) {
    13d2:	c3 30       	cpi	r28, 0x03	; 3
    13d4:	09 f0       	breq	.+2      	; 0x13d8 <bassTick+0x60c>
    13d6:	58 c0       	rjmp	.+176    	; 0x1488 <bassTick+0x6bc>
    13d8:	80 91 80 0c 	lds	r24, 0x0C80	; 0x800c80 <it42>
				}
				else if (it4 == 2) {
					DisplaySong3();
				}*/
				//playB(playlistBas[it4][it1][it2]);
				if (it42 == 0) {
    13dc:	81 11       	cpse	r24, r1
    13de:	1b c0       	rjmp	.+54     	; 0x1416 <bassTick+0x64a>
    13e0:	80 91 6f 0a 	lds	r24, 0x0A6F	; 0x800a6f <it1.2250>
					playB(playlistBas[it42][it1][it2]);
    13e4:	90 91 70 0a 	lds	r25, 0x0A70	; 0x800a70 <it1.2250+0x1>
    13e8:	88 0f       	add	r24, r24
    13ea:	99 1f       	adc	r25, r25
    13ec:	e0 91 15 01 	lds	r30, 0x0115	; 0x800115 <playlistBas>
    13f0:	f0 91 16 01 	lds	r31, 0x0116	; 0x800116 <playlistBas+0x1>
    13f4:	e8 0f       	add	r30, r24
    13f6:	f9 1f       	adc	r31, r25
    13f8:	80 91 6d 0a 	lds	r24, 0x0A6D	; 0x800a6d <it2.2251>
    13fc:	90 91 6e 0a 	lds	r25, 0x0A6E	; 0x800a6e <it2.2251+0x1>
    1400:	88 0f       	add	r24, r24
    1402:	99 1f       	adc	r25, r25
    1404:	01 90       	ld	r0, Z+
    1406:	f0 81       	ld	r31, Z
    1408:	e0 2d       	mov	r30, r0
    140a:	e8 0f       	add	r30, r24
    140c:	f9 1f       	adc	r31, r25
    140e:	80 81       	ld	r24, Z
    1410:	91 81       	ldd	r25, Z+1	; 0x01
    1412:	15 d9       	rcall	.-3542   	; 0x63e <playB>
    1414:	39 c0       	rjmp	.+114    	; 0x1488 <bassTick+0x6bc>
    1416:	81 30       	cpi	r24, 0x01	; 1
					//DisplaySong1();
					
				}
				else if (it42 == 1) {
    1418:	d9 f4       	brne	.+54     	; 0x1450 <bassTick+0x684>
    141a:	80 91 6f 0a 	lds	r24, 0x0A6F	; 0x800a6f <it1.2250>
					playB(playlistBas[it42][it1][it2]);
    141e:	90 91 70 0a 	lds	r25, 0x0A70	; 0x800a70 <it1.2250+0x1>
    1422:	88 0f       	add	r24, r24
    1424:	99 1f       	adc	r25, r25
    1426:	e0 91 17 01 	lds	r30, 0x0117	; 0x800117 <playlistBas+0x2>
    142a:	f0 91 18 01 	lds	r31, 0x0118	; 0x800118 <playlistBas+0x3>
    142e:	e8 0f       	add	r30, r24
    1430:	f9 1f       	adc	r31, r25
    1432:	80 91 6d 0a 	lds	r24, 0x0A6D	; 0x800a6d <it2.2251>
    1436:	90 91 6e 0a 	lds	r25, 0x0A6E	; 0x800a6e <it2.2251+0x1>
    143a:	88 0f       	add	r24, r24
    143c:	99 1f       	adc	r25, r25
    143e:	01 90       	ld	r0, Z+
    1440:	f0 81       	ld	r31, Z
    1442:	e0 2d       	mov	r30, r0
    1444:	e8 0f       	add	r30, r24
    1446:	f9 1f       	adc	r31, r25
    1448:	80 81       	ld	r24, Z
    144a:	91 81       	ldd	r25, Z+1	; 0x01
    144c:	f8 d8       	rcall	.-3600   	; 0x63e <playB>
    144e:	1c c0       	rjmp	.+56     	; 0x1488 <bassTick+0x6bc>
    1450:	82 30       	cpi	r24, 0x02	; 2
					//DisplaySong2();
					
				}
				else if (it42 == 2) {
    1452:	d1 f4       	brne	.+52     	; 0x1488 <bassTick+0x6bc>
    1454:	80 91 6f 0a 	lds	r24, 0x0A6F	; 0x800a6f <it1.2250>
					playB(playlistBas[it42][it1][it2]);
    1458:	90 91 70 0a 	lds	r25, 0x0A70	; 0x800a70 <it1.2250+0x1>
    145c:	88 0f       	add	r24, r24
    145e:	99 1f       	adc	r25, r25
    1460:	e0 91 19 01 	lds	r30, 0x0119	; 0x800119 <playlistBas+0x4>
    1464:	f0 91 1a 01 	lds	r31, 0x011A	; 0x80011a <playlistBas+0x5>
    1468:	e8 0f       	add	r30, r24
    146a:	f9 1f       	adc	r31, r25
    146c:	80 91 6d 0a 	lds	r24, 0x0A6D	; 0x800a6d <it2.2251>
    1470:	90 91 6e 0a 	lds	r25, 0x0A6E	; 0x800a6e <it2.2251+0x1>
    1474:	88 0f       	add	r24, r24
    1476:	99 1f       	adc	r25, r25
    1478:	01 90       	ld	r0, Z+
    147a:	f0 81       	ld	r31, Z
    147c:	e0 2d       	mov	r30, r0
    147e:	e8 0f       	add	r30, r24
    1480:	f9 1f       	adc	r31, r25
    1482:	80 81       	ld	r24, Z
    1484:	91 81       	ldd	r25, Z+1	; 0x01
    1486:	db d8       	rcall	.-3658   	; 0x63e <playB>
    1488:	d0 e0       	ldi	r29, 0x00	; 0
					//DisplaySong3();
					//playB(playlistBas[it4][it1][it2]);
				}
					
			}
			state = placeHolder;
    148a:	0b c0       	rjmp	.+22     	; 0x14a2 <bassTick+0x6d6>
    148c:	c2 e0       	ldi	r28, 0x02	; 2
		silenceB();
		break;

		case Bwait:
		if (!paused) {
			state= Bplay;
    148e:	d0 e0       	ldi	r29, 0x00	; 0
    1490:	08 c0       	rjmp	.+16     	; 0x14a2 <bassTick+0x6d6>
    1492:	c1 e0       	ldi	r28, 0x01	; 1
			it1 = it1 + 1;
			it2 = 0;
		}
		if (it1 == numRows[it42]) {
			songDone = 1;
			state = Bwait;
    1494:	d0 e0       	ldi	r29, 0x00	; 0
    1496:	05 c0       	rjmp	.+10     	; 0x14a2 <bassTick+0x6d6>
    1498:	c2 e0       	ldi	r28, 0x02	; 2
			it3 = 0;
			it42 = it42 + 1;
			if (it42 == playList) {
				it42 = 0;
			}
			state = Bplay;
    149a:	d0 e0       	ldi	r29, 0x00	; 0
    149c:	02 c0       	rjmp	.+4      	; 0x14a2 <bassTick+0x6d6>
    149e:	c2 e0       	ldi	r28, 0x02	; 2
			it3 = 0;
			it42 = it42 + 1;
			if (it42 == playList) {
				it42 = 0;
			}
			state = Bplay;
    14a0:	d0 e0       	ldi	r29, 0x00	; 0
    14a2:	ce 01       	movw	r24, r28
			state = placeHolder;
		}
		break;
	}
	return state;
}
    14a4:	df 91       	pop	r29
    14a6:	cf 91       	pop	r28
    14a8:	1f 91       	pop	r17
    14aa:	0f 91       	pop	r16
    14ac:	08 95       	ret

000014ae <PressPlay>:
    14ae:	10 d1       	rcall	.+544    	; 0x16d0 <nokia_lcd_clear>
	nokia_lcd_write_string("Song Paused!  Press Play to Resume.", 1);
	nokia_lcd_render();
}
void PressPlay() {
	nokia_lcd_clear();
	nokia_lcd_set_cursor(0,0);
    14b0:	60 e0       	ldi	r22, 0x00	; 0
    14b2:	70 e0       	ldi	r23, 0x00	; 0
    14b4:	80 e0       	ldi	r24, 0x00	; 0
    14b6:	90 e0       	ldi	r25, 0x00	; 0
    14b8:	03 d2       	rcall	.+1030   	; 0x18c0 <nokia_lcd_set_cursor>
	nokia_lcd_write_string("Welcome to the iBreadBoard! Press Play to Begin Your     Music!", 1);
    14ba:	61 e0       	ldi	r22, 0x01	; 1
    14bc:	70 e0       	ldi	r23, 0x00	; 0
    14be:	8d ef       	ldi	r24, 0xFD	; 253
    14c0:	99 e0       	ldi	r25, 0x09	; 9
	nokia_lcd_render();
    14c2:	ec d1       	rcall	.+984    	; 0x189c <nokia_lcd_write_string>
    14c4:	02 c2       	rjmp	.+1028   	; 0x18ca <nokia_lcd_render>
    14c6:	08 95       	ret

000014c8 <main>:





int main(void) {
    14c8:	cf 93       	push	r28
    14ca:	df 93       	push	r29
    14cc:	cd b7       	in	r28, 0x3d	; 61
    14ce:	de b7       	in	r29, 0x3e	; 62
    14d0:	28 97       	sbiw	r28, 0x08	; 8
    14d2:	0f b6       	in	r0, 0x3f	; 63
    14d4:	f8 94       	cli
    14d6:	de bf       	out	0x3e, r29	; 62
    14d8:	0f be       	out	0x3f, r0	; 63
    14da:	cd bf       	out	0x3d, r28	; 61
    /* Insert DDR and PORT initializations */
	DDRA = 0x00;
    14dc:	11 b8       	out	0x01, r1	; 1
	PORTA = 0x00;
    14de:	12 b8       	out	0x02, r1	; 2
	DDRB = 0xFF;
    14e0:	8f ef       	ldi	r24, 0xFF	; 255
    14e2:	84 b9       	out	0x04, r24	; 4
	PORTB = 0x00;
    14e4:	15 b8       	out	0x05, r1	; 5
	DDRC = 0xFF;
    14e6:	87 b9       	out	0x07, r24	; 7
	PORTC = 0x00;
    14e8:	18 b8       	out	0x08, r1	; 8
	DDRD = 0xF0;
    14ea:	80 ef       	ldi	r24, 0xF0	; 240
    14ec:	8a b9       	out	0x0a, r24	; 10
	PORTD = 0x00;
    14ee:	1b b8       	out	0x0b, r1	; 11


  unsigned char timerPeriod = 1;
  static task task2, task3, task4, task5;
  task *tasks[] = {  &task2, &task3, &task4, &task5};
    14f0:	88 e0       	ldi	r24, 0x08	; 8
    14f2:	ef e5       	ldi	r30, 0x5F	; 95
    14f4:	f9 e0       	ldi	r31, 0x09	; 9
    14f6:	de 01       	movw	r26, r28
    14f8:	11 96       	adiw	r26, 0x01	; 1
    14fa:	01 90       	ld	r0, Z+
    14fc:	0d 92       	st	X+, r0
    14fe:	8a 95       	dec	r24
    1500:	e1 f7       	brne	.-8      	; 0x14fa <main+0x32>

  /*task1.state = 0;
  task1.period = 50;
  task1.elapsedTime = task1.period;
  task1.TickFct = &DisplayNameTick;*/
  task2.state = 0;
    1502:	ef e5       	ldi	r30, 0x5F	; 95
    1504:	fa e0       	ldi	r31, 0x0A	; 10
    1506:	10 82       	st	Z, r1
  task2.period = 1;
    1508:	81 e0       	ldi	r24, 0x01	; 1
    150a:	90 e0       	ldi	r25, 0x00	; 0
    150c:	a0 e0       	ldi	r26, 0x00	; 0
    150e:	b0 e0       	ldi	r27, 0x00	; 0
    1510:	81 83       	std	Z+1, r24	; 0x01
    1512:	92 83       	std	Z+2, r25	; 0x02
    1514:	a3 83       	std	Z+3, r26	; 0x03
    1516:	b4 83       	std	Z+4, r27	; 0x04
  task2.elapsedTime = task2.period;
    1518:	85 83       	std	Z+5, r24	; 0x05
    151a:	96 83       	std	Z+6, r25	; 0x06
    151c:	a7 83       	std	Z+7, r26	; 0x07
    151e:	b0 87       	std	Z+8, r27	; 0x08
  task2.TickFct = &pauseTick;
    1520:	26 e5       	ldi	r18, 0x56	; 86
    1522:	31 e0       	ldi	r19, 0x01	; 1
    1524:	32 87       	std	Z+10, r19	; 0x0a
    1526:	21 87       	std	Z+9, r18	; 0x09
  task3.state = 0;
    1528:	e4 e5       	ldi	r30, 0x54	; 84
    152a:	fa e0       	ldi	r31, 0x0A	; 10
    152c:	10 82       	st	Z, r1
  task3.period = 1;
    152e:	81 83       	std	Z+1, r24	; 0x01
    1530:	92 83       	std	Z+2, r25	; 0x02
    1532:	a3 83       	std	Z+3, r26	; 0x03
    1534:	b4 83       	std	Z+4, r27	; 0x04
  task3.elapsedTime = task3.period;
    1536:	85 83       	std	Z+5, r24	; 0x05
    1538:	96 83       	std	Z+6, r25	; 0x06
    153a:	a7 83       	std	Z+7, r26	; 0x07
    153c:	b0 87       	std	Z+8, r27	; 0x08
  task3.TickFct = &NextPrevTick;
    153e:	2a e7       	ldi	r18, 0x7A	; 122
    1540:	31 e0       	ldi	r19, 0x01	; 1
    1542:	32 87       	std	Z+10, r19	; 0x0a
    1544:	21 87       	std	Z+9, r18	; 0x09
  task4.state = 0;
    1546:	e9 e4       	ldi	r30, 0x49	; 73
    1548:	fa e0       	ldi	r31, 0x0A	; 10
    154a:	10 82       	st	Z, r1
  task4.period = 1;
    154c:	81 83       	std	Z+1, r24	; 0x01
    154e:	92 83       	std	Z+2, r25	; 0x02
    1550:	a3 83       	std	Z+3, r26	; 0x03
    1552:	b4 83       	std	Z+4, r27	; 0x04
  task4.elapsedTime = task4.period;
    1554:	85 83       	std	Z+5, r24	; 0x05
    1556:	96 83       	std	Z+6, r25	; 0x06
    1558:	a7 83       	std	Z+7, r26	; 0x07
    155a:	b0 87       	std	Z+8, r27	; 0x08
  task4.TickFct = &melodyTick;
    155c:	20 e7       	ldi	r18, 0x70	; 112
    155e:	33 e0       	ldi	r19, 0x03	; 3
    1560:	32 87       	std	Z+10, r19	; 0x0a
    1562:	21 87       	std	Z+9, r18	; 0x09
  task5.state = 0;
    1564:	ee e3       	ldi	r30, 0x3E	; 62
    1566:	fa e0       	ldi	r31, 0x0A	; 10
    1568:	10 82       	st	Z, r1
  task5.period = 1;
    156a:	81 83       	std	Z+1, r24	; 0x01
    156c:	92 83       	std	Z+2, r25	; 0x02
    156e:	a3 83       	std	Z+3, r26	; 0x03
    1570:	b4 83       	std	Z+4, r27	; 0x04
  task5.elapsedTime = task5.period;
    1572:	85 83       	std	Z+5, r24	; 0x05
    1574:	96 83       	std	Z+6, r25	; 0x06
    1576:	a7 83       	std	Z+7, r26	; 0x07
    1578:	b0 87       	std	Z+8, r27	; 0x08
  task5.TickFct = &bassTick;
    157a:	86 ee       	ldi	r24, 0xE6	; 230
    157c:	96 e0       	ldi	r25, 0x06	; 6
    157e:	92 87       	std	Z+10, r25	; 0x0a
    1580:	81 87       	std	Z+9, r24	; 0x09
	TimerSet(timerPeriod);
    1582:	61 e0       	ldi	r22, 0x01	; 1
    1584:	70 e0       	ldi	r23, 0x00	; 0
    1586:	80 e0       	ldi	r24, 0x00	; 0
    1588:	90 e0       	ldi	r25, 0x00	; 0
    158a:	0e 94 0b 02 	call	0x416	; 0x416 <TimerSet>
	TimerOn();
    158e:	0e 94 b0 01 	call	0x360	; 0x360 <TimerOn>

	nokia_lcd_init();
    1592:	68 d0       	rcall	.+208    	; 0x1664 <nokia_lcd_init>
	PressPlay();
    1594:	8c df       	rcall	.-232    	; 0x14ae <PressPlay>
    1596:	0e 94 8c 02 	call	0x518	; 0x518 <PWM_on>
	//nokia_lcd_set_cursor(0, 0);
	//nokia_lcd_write_string("JESUS LOVES     YOU         JOHN 3:16", 1);
	//nokia_lcd_render();
	PWM_on();
	//PWM0_on();
	PWMB_on();
    159a:	39 d8       	rcall	.-3982   	; 0x60e <PWMB_on>
    159c:	7e 01       	movw	r14, r28
    159e:	89 e0       	ldi	r24, 0x09	; 9
    15a0:	e8 0e       	add	r14, r24
    15a2:	f1 1c       	adc	r15, r1
    15a4:	de 01       	movw	r26, r28
    15a6:	11 96       	adiw	r26, 0x01	; 1
    15a8:	6d 01       	movw	r12, r26
    15aa:	f6 01       	movw	r30, r12

    while (1) {
			for (unsigned char i = 0; i < taskNum; i++) {
				if ( tasks[i]->elapsedTime == tasks[i]->period) {
    15ac:	01 91       	ld	r16, Z+
    15ae:	11 91       	ld	r17, Z+
    15b0:	6f 01       	movw	r12, r30
    15b2:	d8 01       	movw	r26, r16
    15b4:	15 96       	adiw	r26, 0x05	; 5
    15b6:	4d 91       	ld	r20, X+
    15b8:	5d 91       	ld	r21, X+
    15ba:	6d 91       	ld	r22, X+
    15bc:	7c 91       	ld	r23, X
    15be:	18 97       	sbiw	r26, 0x08	; 8
    15c0:	11 96       	adiw	r26, 0x01	; 1
    15c2:	8d 91       	ld	r24, X+
    15c4:	9d 91       	ld	r25, X+
    15c6:	0d 90       	ld	r0, X+
    15c8:	bc 91       	ld	r27, X
    15ca:	a0 2d       	mov	r26, r0
    15cc:	48 17       	cp	r20, r24
    15ce:	59 07       	cpc	r21, r25
    15d0:	6a 07       	cpc	r22, r26
    15d2:	7b 07       	cpc	r23, r27
    15d4:	81 f4       	brne	.+32     	; 0x15f6 <main+0x12e>
    15d6:	f8 01       	movw	r30, r16
					tasks[i]->state = tasks[i]->TickFct(tasks[i]->state);
    15d8:	80 81       	ld	r24, Z
    15da:	01 84       	ldd	r0, Z+9	; 0x09
    15dc:	f2 85       	ldd	r31, Z+10	; 0x0a
    15de:	e0 2d       	mov	r30, r0
    15e0:	08 2e       	mov	r0, r24
    15e2:	00 0c       	add	r0, r0
    15e4:	99 0b       	sbc	r25, r25
    15e6:	09 95       	icall
    15e8:	d8 01       	movw	r26, r16
    15ea:	8c 93       	st	X, r24
    15ec:	f8 01       	movw	r30, r16
					tasks[i]->elapsedTime = 0;
    15ee:	15 82       	std	Z+5, r1	; 0x05
    15f0:	16 82       	std	Z+6, r1	; 0x06
    15f2:	17 82       	std	Z+7, r1	; 0x07
    15f4:	10 86       	std	Z+8, r1	; 0x08
    15f6:	f8 01       	movw	r30, r16
				}
				tasks[i]->elapsedTime += timerPeriod;
    15f8:	85 81       	ldd	r24, Z+5	; 0x05
    15fa:	96 81       	ldd	r25, Z+6	; 0x06
    15fc:	a7 81       	ldd	r26, Z+7	; 0x07
    15fe:	b0 85       	ldd	r27, Z+8	; 0x08
    1600:	01 96       	adiw	r24, 0x01	; 1
    1602:	a1 1d       	adc	r26, r1
    1604:	b1 1d       	adc	r27, r1
    1606:	85 83       	std	Z+5, r24	; 0x05
    1608:	96 83       	std	Z+6, r25	; 0x06
    160a:	a7 83       	std	Z+7, r26	; 0x07
    160c:	b0 87       	std	Z+8, r27	; 0x08
    160e:	ce 14       	cp	r12, r14
	PWM_on();
	//PWM0_on();
	PWMB_on();

    while (1) {
			for (unsigned char i = 0; i < taskNum; i++) {
    1610:	df 04       	cpc	r13, r15
    1612:	59 f6       	brne	.-106    	; 0x15aa <main+0xe2>
    1614:	80 91 84 0a 	lds	r24, 0x0A84	; 0x800a84 <TimerFlag>
					tasks[i]->elapsedTime = 0;
				}
				tasks[i]->elapsedTime += timerPeriod;
			}

		while(!TimerFlag){};
    1618:	88 23       	and	r24, r24
    161a:	e1 f3       	breq	.-8      	; 0x1614 <main+0x14c>
    161c:	10 92 84 0a 	sts	0x0A84, r1	; 0x800a84 <TimerFlag>
			TimerFlag = 0;
    1620:	c1 cf       	rjmp	.-126    	; 0x15a4 <main+0xdc>

00001622 <write>:
		}
    1622:	41 98       	cbi	0x08, 1	; 8
		nokia_lcd.screen[i] = 0x00;
}

void nokia_lcd_power(uint8_t on)
{
	write_cmd(on ? 0x20 : 0x24);
    1624:	66 23       	and	r22, r22
    1626:	11 f0       	breq	.+4      	; 0x162c <write+0xa>
    1628:	43 9a       	sbi	0x08, 3	; 8
    162a:	15 c0       	rjmp	.+42     	; 0x1656 <write+0x34>
    162c:	43 98       	cbi	0x08, 3	; 8
    162e:	13 c0       	rjmp	.+38     	; 0x1656 <write+0x34>
    1630:	ac 01       	movw	r20, r24
    1632:	02 2e       	mov	r0, r18
    1634:	02 c0       	rjmp	.+4      	; 0x163a <write+0x18>
    1636:	55 95       	asr	r21
    1638:	47 95       	ror	r20
    163a:	0a 94       	dec	r0
    163c:	e2 f7       	brpl	.-8      	; 0x1636 <write+0x14>
    163e:	40 ff       	sbrs	r20, 0
    1640:	02 c0       	rjmp	.+4      	; 0x1646 <write+0x24>
    1642:	44 9a       	sbi	0x08, 4	; 8
    1644:	01 c0       	rjmp	.+2      	; 0x1648 <write+0x26>
    1646:	44 98       	cbi	0x08, 4	; 8
    1648:	45 9a       	sbi	0x08, 5	; 8
    164a:	45 98       	cbi	0x08, 5	; 8
    164c:	21 50       	subi	r18, 0x01	; 1
    164e:	31 09       	sbc	r19, r1
    1650:	78 f7       	brcc	.-34     	; 0x1630 <write+0xe>
    1652:	41 9a       	sbi	0x08, 1	; 8
    1654:	08 95       	ret
    1656:	27 e0       	ldi	r18, 0x07	; 7
    1658:	30 e0       	ldi	r19, 0x00	; 0
    165a:	90 e0       	ldi	r25, 0x00	; 0
    165c:	e9 cf       	rjmp	.-46     	; 0x1630 <write+0xe>

0000165e <write_cmd>:
    165e:	60 e0       	ldi	r22, 0x00	; 0
    1660:	e0 cf       	rjmp	.-64     	; 0x1622 <write>
    1662:	08 95       	ret

00001664 <nokia_lcd_init>:
    1664:	cf 93       	push	r28
    1666:	df 93       	push	r29
    1668:	39 9a       	sbi	0x07, 1	; 7
    166a:	3a 9a       	sbi	0x07, 2	; 7
    166c:	3b 9a       	sbi	0x07, 3	; 7
    166e:	3c 9a       	sbi	0x07, 4	; 7
    1670:	3d 9a       	sbi	0x07, 5	; 7
    1672:	42 9a       	sbi	0x08, 2	; 8
    1674:	41 9a       	sbi	0x08, 1	; 8
    1676:	83 ec       	ldi	r24, 0xC3	; 195
    1678:	99 e0       	ldi	r25, 0x09	; 9
    167a:	01 97       	sbiw	r24, 0x01	; 1
    167c:	f1 f7       	brne	.-4      	; 0x167a <nokia_lcd_init+0x16>
    167e:	00 c0       	rjmp	.+0      	; 0x1680 <nokia_lcd_init+0x1c>
    1680:	00 00       	nop
    1682:	42 98       	cbi	0x08, 2	; 8
    1684:	8b e5       	ldi	r24, 0x5B	; 91
    1686:	94 e4       	ldi	r25, 0x44	; 68
    1688:	01 97       	sbiw	r24, 0x01	; 1
    168a:	f1 f7       	brne	.-4      	; 0x1688 <nokia_lcd_init+0x24>
    168c:	00 c0       	rjmp	.+0      	; 0x168e <nokia_lcd_init+0x2a>
    168e:	00 00       	nop
    1690:	42 9a       	sbi	0x08, 2	; 8
    1692:	41 98       	cbi	0x08, 1	; 8
    1694:	81 e2       	ldi	r24, 0x21	; 33
    1696:	e3 df       	rcall	.-58     	; 0x165e <write_cmd>
    1698:	83 e1       	ldi	r24, 0x13	; 19
    169a:	e1 df       	rcall	.-62     	; 0x165e <write_cmd>
    169c:	86 e0       	ldi	r24, 0x06	; 6
    169e:	df df       	rcall	.-66     	; 0x165e <write_cmd>
    16a0:	82 ec       	ldi	r24, 0xC2	; 194
    16a2:	dd df       	rcall	.-70     	; 0x165e <write_cmd>
    16a4:	80 e2       	ldi	r24, 0x20	; 32
    16a6:	db df       	rcall	.-74     	; 0x165e <write_cmd>
    16a8:	89 e0       	ldi	r24, 0x09	; 9
    16aa:	d9 df       	rcall	.-78     	; 0x165e <write_cmd>
    16ac:	80 e8       	ldi	r24, 0x80	; 128
    16ae:	d7 df       	rcall	.-82     	; 0x165e <write_cmd>
    16b0:	80 e4       	ldi	r24, 0x40	; 64
    16b2:	d5 df       	rcall	.-86     	; 0x165e <write_cmd>
    16b4:	c8 ef       	ldi	r28, 0xF8	; 248
    16b6:	d1 e0       	ldi	r29, 0x01	; 1
    16b8:	61 e0       	ldi	r22, 0x01	; 1
    16ba:	80 e0       	ldi	r24, 0x00	; 0
    16bc:	b2 df       	rcall	.-156    	; 0x1622 <write>
    16be:	21 97       	sbiw	r28, 0x01	; 1
    16c0:	d9 f7       	brne	.-10     	; 0x16b8 <nokia_lcd_init+0x54>
    16c2:	88 e0       	ldi	r24, 0x08	; 8
    16c4:	cc df       	rcall	.-104    	; 0x165e <write_cmd>
    16c6:	8c e0       	ldi	r24, 0x0C	; 12
    16c8:	ca df       	rcall	.-108    	; 0x165e <write_cmd>
    16ca:	df 91       	pop	r29
    16cc:	cf 91       	pop	r28
    16ce:	08 95       	ret

000016d0 <nokia_lcd_clear>:
    16d0:	80 e8       	ldi	r24, 0x80	; 128
    16d2:	c5 df       	rcall	.-118    	; 0x165e <write_cmd>
    16d4:	80 e4       	ldi	r24, 0x40	; 64
    16d6:	c3 df       	rcall	.-122    	; 0x165e <write_cmd>
    16d8:	10 92 7d 0c 	sts	0x0C7D, r1	; 0x800c7d <nokia_lcd+0x1f8>
    16dc:	10 92 7e 0c 	sts	0x0C7E, r1	; 0x800c7e <nokia_lcd+0x1f9>
    16e0:	e5 e8       	ldi	r30, 0x85	; 133
    16e2:	fa e0       	ldi	r31, 0x0A	; 10
    16e4:	8d e7       	ldi	r24, 0x7D	; 125
    16e6:	9c e0       	ldi	r25, 0x0C	; 12
    16e8:	11 92       	st	Z+, r1
    16ea:	e8 17       	cp	r30, r24
    16ec:	f9 07       	cpc	r31, r25
    16ee:	e1 f7       	brne	.-8      	; 0x16e8 <nokia_lcd_clear+0x18>
    16f0:	08 95       	ret

000016f2 <nokia_lcd_set_pixel>:
}

void nokia_lcd_set_pixel(uint8_t x, uint8_t y, uint8_t value)
{
	uint8_t *byte = &nokia_lcd.screen[y/8*84+x];
    16f2:	26 2f       	mov	r18, r22
    16f4:	26 95       	lsr	r18
    16f6:	26 95       	lsr	r18
    16f8:	26 95       	lsr	r18
    16fa:	90 e0       	ldi	r25, 0x00	; 0
    16fc:	34 e5       	ldi	r19, 0x54	; 84
    16fe:	23 9f       	mul	r18, r19
    1700:	80 0d       	add	r24, r0
    1702:	91 1d       	adc	r25, r1
    1704:	11 24       	eor	r1, r1
	if (value)
    1706:	44 23       	and	r20, r20
    1708:	79 f0       	breq	.+30     	; 0x1728 <nokia_lcd_set_pixel+0x36>
		*byte |= (1 << (y % 8));
    170a:	fc 01       	movw	r30, r24
    170c:	eb 57       	subi	r30, 0x7B	; 123
    170e:	f5 4f       	sbci	r31, 0xF5	; 245
    1710:	67 70       	andi	r22, 0x07	; 7
    1712:	81 e0       	ldi	r24, 0x01	; 1
    1714:	90 e0       	ldi	r25, 0x00	; 0
    1716:	02 c0       	rjmp	.+4      	; 0x171c <nokia_lcd_set_pixel+0x2a>
    1718:	88 0f       	add	r24, r24
    171a:	99 1f       	adc	r25, r25
    171c:	6a 95       	dec	r22
    171e:	e2 f7       	brpl	.-8      	; 0x1718 <nokia_lcd_set_pixel+0x26>
    1720:	90 81       	ld	r25, Z
    1722:	89 2b       	or	r24, r25
    1724:	80 83       	st	Z, r24
    1726:	08 95       	ret
	else
		*byte &= ~(1 << (y %8 ));
    1728:	fc 01       	movw	r30, r24
    172a:	eb 57       	subi	r30, 0x7B	; 123
    172c:	f5 4f       	sbci	r31, 0xF5	; 245
    172e:	67 70       	andi	r22, 0x07	; 7
    1730:	81 e0       	ldi	r24, 0x01	; 1
    1732:	90 e0       	ldi	r25, 0x00	; 0
    1734:	02 c0       	rjmp	.+4      	; 0x173a <nokia_lcd_set_pixel+0x48>
    1736:	88 0f       	add	r24, r24
    1738:	99 1f       	adc	r25, r25
    173a:	6a 95       	dec	r22
    173c:	e2 f7       	brpl	.-8      	; 0x1736 <nokia_lcd_set_pixel+0x44>
    173e:	80 95       	com	r24
    1740:	90 81       	ld	r25, Z
    1742:	89 23       	and	r24, r25
    1744:	80 83       	st	Z, r24
    1746:	08 95       	ret

00001748 <nokia_lcd_write_char>:
}

void nokia_lcd_write_char(char code, uint8_t scale)
{
    1748:	5f 92       	push	r5
    174a:	6f 92       	push	r6
    174c:	7f 92       	push	r7
    174e:	8f 92       	push	r8
    1750:	9f 92       	push	r9
    1752:	af 92       	push	r10
    1754:	bf 92       	push	r11
    1756:	cf 92       	push	r12
    1758:	df 92       	push	r13
    175a:	ef 92       	push	r14
    175c:	ff 92       	push	r15
    175e:	0f 93       	push	r16
    1760:	1f 93       	push	r17
    1762:	cf 93       	push	r28
    1764:	df 93       	push	r29
    1766:	56 2e       	mov	r5, r22
	register uint8_t x, y;

	for (x = 0; x < 5*scale; x++)
    1768:	26 2f       	mov	r18, r22
    176a:	30 e0       	ldi	r19, 0x00	; 0
    176c:	49 01       	movw	r8, r18
    176e:	88 0c       	add	r8, r8
    1770:	99 1c       	adc	r9, r9
    1772:	88 0c       	add	r8, r8
    1774:	99 1c       	adc	r9, r9
    1776:	82 0e       	add	r8, r18
    1778:	93 1e       	adc	r9, r19
    177a:	18 14       	cp	r1, r8
    177c:	19 04       	cpc	r1, r9
    177e:	0c f0       	brlt	.+2      	; 0x1782 <nokia_lcd_write_char+0x3a>
    1780:	59 c0       	rjmp	.+178    	; 0x1834 <nokia_lcd_write_char+0xec>
		for (y = 0; y < 7*scale; y++)
    1782:	89 01       	movw	r16, r18
    1784:	00 0f       	add	r16, r16
    1786:	11 1f       	adc	r17, r17
    1788:	00 0f       	add	r16, r16
    178a:	11 1f       	adc	r17, r17
    178c:	00 0f       	add	r16, r16
    178e:	11 1f       	adc	r17, r17
    1790:	02 1b       	sub	r16, r18
    1792:	13 0b       	sbc	r17, r19
    1794:	61 2c       	mov	r6, r1
			if (pgm_read_byte(&CHARSET[code-32][x/scale]) & (1 << y/scale))
    1796:	a8 2e       	mov	r10, r24
    1798:	b1 2c       	mov	r11, r1
    179a:	c5 01       	movw	r24, r10
    179c:	80 97       	sbiw	r24, 0x20	; 32
    179e:	5c 01       	movw	r10, r24
    17a0:	aa 0c       	add	r10, r10
    17a2:	bb 1c       	adc	r11, r11
    17a4:	aa 0c       	add	r10, r10
    17a6:	bb 1c       	adc	r11, r11
    17a8:	a8 0e       	add	r10, r24
    17aa:	b9 1e       	adc	r11, r25
				nokia_lcd_set_pixel(nokia_lcd.cursor_x + x, nokia_lcd.cursor_y + y, 1);
			else
				nokia_lcd_set_pixel(nokia_lcd.cursor_x + x, nokia_lcd.cursor_y + y, 0);
    17ac:	0f 2e       	mov	r0, r31
    17ae:	fe e7       	ldi	r31, 0x7E	; 126
    17b0:	cf 2e       	mov	r12, r31
    17b2:	fc e0       	ldi	r31, 0x0C	; 12
    17b4:	df 2e       	mov	r13, r31
    17b6:	f0 2d       	mov	r31, r0
    17b8:	0f 2e       	mov	r0, r31
    17ba:	fd e7       	ldi	r31, 0x7D	; 125
    17bc:	ef 2e       	mov	r14, r31
    17be:	fc e0       	ldi	r31, 0x0C	; 12
    17c0:	ff 2e       	mov	r15, r31
    17c2:	f0 2d       	mov	r31, r0
    17c4:	2a c0       	rjmp	.+84     	; 0x181a <nokia_lcd_write_char+0xd2>
{
	register uint8_t x, y;

	for (x = 0; x < 5*scale; x++)
		for (y = 0; y < 7*scale; y++)
			if (pgm_read_byte(&CHARSET[code-32][x/scale]) & (1 << y/scale))
    17c6:	fe 01       	movw	r30, r28
    17c8:	24 91       	lpm	r18, Z
    17ca:	30 e0       	ldi	r19, 0x00	; 0
    17cc:	87 2d       	mov	r24, r7
    17ce:	65 2d       	mov	r22, r5
    17d0:	49 d2       	rcall	.+1170   	; 0x1c64 <__udivmodqi4>
    17d2:	02 c0       	rjmp	.+4      	; 0x17d8 <nokia_lcd_write_char+0x90>
    17d4:	35 95       	asr	r19
    17d6:	27 95       	ror	r18
    17d8:	8a 95       	dec	r24
    17da:	e2 f7       	brpl	.-8      	; 0x17d4 <nokia_lcd_write_char+0x8c>
    17dc:	20 ff       	sbrs	r18, 0
    17de:	09 c0       	rjmp	.+18     	; 0x17f2 <nokia_lcd_write_char+0xaa>
				nokia_lcd_set_pixel(nokia_lcd.cursor_x + x, nokia_lcd.cursor_y + y, 1);
    17e0:	f6 01       	movw	r30, r12
    17e2:	60 81       	ld	r22, Z
    17e4:	67 0d       	add	r22, r7
    17e6:	f7 01       	movw	r30, r14
    17e8:	80 81       	ld	r24, Z
    17ea:	41 e0       	ldi	r20, 0x01	; 1
    17ec:	86 0d       	add	r24, r6
    17ee:	81 df       	rcall	.-254    	; 0x16f2 <nokia_lcd_set_pixel>
    17f0:	08 c0       	rjmp	.+16     	; 0x1802 <nokia_lcd_write_char+0xba>
			else
				nokia_lcd_set_pixel(nokia_lcd.cursor_x + x, nokia_lcd.cursor_y + y, 0);
    17f2:	f6 01       	movw	r30, r12
    17f4:	60 81       	ld	r22, Z
    17f6:	67 0d       	add	r22, r7
    17f8:	f7 01       	movw	r30, r14
    17fa:	80 81       	ld	r24, Z
    17fc:	40 e0       	ldi	r20, 0x00	; 0
    17fe:	86 0d       	add	r24, r6
    1800:	78 df       	rcall	.-272    	; 0x16f2 <nokia_lcd_set_pixel>
void nokia_lcd_write_char(char code, uint8_t scale)
{
	register uint8_t x, y;

	for (x = 0; x < 5*scale; x++)
		for (y = 0; y < 7*scale; y++)
    1802:	73 94       	inc	r7
    1804:	87 2d       	mov	r24, r7
    1806:	90 e0       	ldi	r25, 0x00	; 0
    1808:	80 17       	cp	r24, r16
    180a:	91 07       	cpc	r25, r17
    180c:	e4 f2       	brlt	.-72     	; 0x17c6 <nokia_lcd_write_char+0x7e>

void nokia_lcd_write_char(char code, uint8_t scale)
{
	register uint8_t x, y;

	for (x = 0; x < 5*scale; x++)
    180e:	63 94       	inc	r6
    1810:	86 2d       	mov	r24, r6
    1812:	90 e0       	ldi	r25, 0x00	; 0
    1814:	88 15       	cp	r24, r8
    1816:	99 05       	cpc	r25, r9
    1818:	6c f4       	brge	.+26     	; 0x1834 <nokia_lcd_write_char+0xec>
		for (y = 0; y < 7*scale; y++)
    181a:	10 16       	cp	r1, r16
    181c:	11 06       	cpc	r1, r17
			if (pgm_read_byte(&CHARSET[code-32][x/scale]) & (1 << y/scale))
    181e:	bc f7       	brge	.-18     	; 0x180e <nokia_lcd_write_char+0xc6>
    1820:	86 2d       	mov	r24, r6
    1822:	65 2d       	mov	r22, r5
    1824:	1f d2       	rcall	.+1086   	; 0x1c64 <__udivmodqi4>
    1826:	e5 01       	movw	r28, r10
    1828:	c8 0f       	add	r28, r24
    182a:	d1 1d       	adc	r29, r1
    182c:	c4 57       	subi	r28, 0x74	; 116
    182e:	df 4f       	sbci	r29, 0xFF	; 255
    1830:	71 2c       	mov	r7, r1
    1832:	c9 cf       	rjmp	.-110    	; 0x17c6 <nokia_lcd_write_char+0x7e>
				nokia_lcd_set_pixel(nokia_lcd.cursor_x + x, nokia_lcd.cursor_y + y, 1);
			else
				nokia_lcd_set_pixel(nokia_lcd.cursor_x + x, nokia_lcd.cursor_y + y, 0);

	nokia_lcd.cursor_x += 5*scale + 1;
    1834:	80 91 7d 0c 	lds	r24, 0x0C7D	; 0x800c7d <nokia_lcd+0x1f8>
    1838:	91 e0       	ldi	r25, 0x01	; 1
    183a:	98 0f       	add	r25, r24
    183c:	85 2d       	mov	r24, r5
    183e:	88 0f       	add	r24, r24
    1840:	88 0f       	add	r24, r24
    1842:	85 0d       	add	r24, r5
    1844:	89 0f       	add	r24, r25
	if (nokia_lcd.cursor_x >= 84) {
    1846:	84 35       	cpi	r24, 0x54	; 84
    1848:	18 f4       	brcc	.+6      	; 0x1850 <nokia_lcd_write_char+0x108>
			if (pgm_read_byte(&CHARSET[code-32][x/scale]) & (1 << y/scale))
				nokia_lcd_set_pixel(nokia_lcd.cursor_x + x, nokia_lcd.cursor_y + y, 1);
			else
				nokia_lcd_set_pixel(nokia_lcd.cursor_x + x, nokia_lcd.cursor_y + y, 0);

	nokia_lcd.cursor_x += 5*scale + 1;
    184a:	80 93 7d 0c 	sts	0x0C7D, r24	; 0x800c7d <nokia_lcd+0x1f8>
    184e:	0e c0       	rjmp	.+28     	; 0x186c <nokia_lcd_write_char+0x124>
	if (nokia_lcd.cursor_x >= 84) {
		nokia_lcd.cursor_x = 0;
    1850:	10 92 7d 0c 	sts	0x0C7D, r1	; 0x800c7d <nokia_lcd+0x1f8>
		nokia_lcd.cursor_y += 7*scale + 1;
    1854:	ee e7       	ldi	r30, 0x7E	; 126
    1856:	fc e0       	ldi	r31, 0x0C	; 12
    1858:	80 81       	ld	r24, Z
    185a:	91 e0       	ldi	r25, 0x01	; 1
    185c:	98 0f       	add	r25, r24
    185e:	85 2d       	mov	r24, r5
    1860:	88 0f       	add	r24, r24
    1862:	88 0f       	add	r24, r24
    1864:	88 0f       	add	r24, r24
    1866:	85 19       	sub	r24, r5
    1868:	89 0f       	add	r24, r25
    186a:	80 83       	st	Z, r24
	}
	if (nokia_lcd.cursor_y >= 48) {
    186c:	80 91 7e 0c 	lds	r24, 0x0C7E	; 0x800c7e <nokia_lcd+0x1f9>
    1870:	80 33       	cpi	r24, 0x30	; 48
    1872:	20 f0       	brcs	.+8      	; 0x187c <nokia_lcd_write_char+0x134>
		nokia_lcd.cursor_x = 0;
    1874:	10 92 7d 0c 	sts	0x0C7D, r1	; 0x800c7d <nokia_lcd+0x1f8>
		nokia_lcd.cursor_y = 0;
    1878:	10 92 7e 0c 	sts	0x0C7E, r1	; 0x800c7e <nokia_lcd+0x1f9>
	}
}
    187c:	df 91       	pop	r29
    187e:	cf 91       	pop	r28
    1880:	1f 91       	pop	r17
    1882:	0f 91       	pop	r16
    1884:	ff 90       	pop	r15
    1886:	ef 90       	pop	r14
    1888:	df 90       	pop	r13
    188a:	cf 90       	pop	r12
    188c:	bf 90       	pop	r11
    188e:	af 90       	pop	r10
    1890:	9f 90       	pop	r9
    1892:	8f 90       	pop	r8
    1894:	7f 90       	pop	r7
    1896:	6f 90       	pop	r6
    1898:	5f 90       	pop	r5
    189a:	08 95       	ret

0000189c <nokia_lcd_write_string>:

void nokia_lcd_write_string(const char *str, uint8_t scale)
{
    189c:	1f 93       	push	r17
    189e:	cf 93       	push	r28
    18a0:	df 93       	push	r29
    18a2:	ec 01       	movw	r28, r24
	while(*str)
    18a4:	88 81       	ld	r24, Y
    18a6:	88 23       	and	r24, r24
    18a8:	39 f0       	breq	.+14     	; 0x18b8 <nokia_lcd_write_string+0x1c>
    18aa:	16 2f       	mov	r17, r22
    18ac:	21 96       	adiw	r28, 0x01	; 1
		nokia_lcd_write_char(*str++, scale);
    18ae:	61 2f       	mov	r22, r17
    18b0:	4b df       	rcall	.-362    	; 0x1748 <nokia_lcd_write_char>
	}
}

void nokia_lcd_write_string(const char *str, uint8_t scale)
{
	while(*str)
    18b2:	89 91       	ld	r24, Y+
    18b4:	81 11       	cpse	r24, r1
    18b6:	fb cf       	rjmp	.-10     	; 0x18ae <nokia_lcd_write_string+0x12>
		nokia_lcd_write_char(*str++, scale);
}
    18b8:	df 91       	pop	r29
    18ba:	cf 91       	pop	r28
    18bc:	1f 91       	pop	r17
    18be:	08 95       	ret

000018c0 <nokia_lcd_set_cursor>:

void nokia_lcd_set_cursor(uint8_t x, uint8_t y)
{
	nokia_lcd.cursor_x = x;
    18c0:	80 93 7d 0c 	sts	0x0C7D, r24	; 0x800c7d <nokia_lcd+0x1f8>
	nokia_lcd.cursor_y = y;
    18c4:	60 93 7e 0c 	sts	0x0C7E, r22	; 0x800c7e <nokia_lcd+0x1f9>
    18c8:	08 95       	ret

000018ca <nokia_lcd_render>:
}

void nokia_lcd_render(void)
{
    18ca:	0f 93       	push	r16
    18cc:	1f 93       	push	r17
    18ce:	cf 93       	push	r28
    18d0:	df 93       	push	r29
	register unsigned i;
	/* Set column and row to 0 */
	write_cmd(0x80);
    18d2:	80 e8       	ldi	r24, 0x80	; 128
    18d4:	c4 de       	rcall	.-632    	; 0x165e <write_cmd>
	write_cmd(0x40);
    18d6:	80 e4       	ldi	r24, 0x40	; 64
    18d8:	c2 de       	rcall	.-636    	; 0x165e <write_cmd>
    18da:	c5 e8       	ldi	r28, 0x85	; 133
    18dc:	da e0       	ldi	r29, 0x0A	; 10
    18de:	0d e7       	ldi	r16, 0x7D	; 125
    18e0:	1c e0       	ldi	r17, 0x0C	; 12
	write(cmd, 0);
}

static void write_data(uint8_t data)
{
	write(data, 1);
    18e2:	61 e0       	ldi	r22, 0x01	; 1
    18e4:	89 91       	ld	r24, Y+
    18e6:	9d de       	rcall	.-710    	; 0x1622 <write>
	/* Set column and row to 0 */
	write_cmd(0x80);
	write_cmd(0x40);

	/* Write screen to display */
	for (i = 0; i < 504; i++)
    18e8:	c0 17       	cp	r28, r16
    18ea:	d1 07       	cpc	r29, r17
    18ec:	d1 f7       	brne	.-12     	; 0x18e2 <nokia_lcd_render+0x18>
		write_data(nokia_lcd.screen[i]);
}
    18ee:	df 91       	pop	r29
    18f0:	cf 91       	pop	r28
    18f2:	1f 91       	pop	r17
    18f4:	0f 91       	pop	r16
    18f6:	08 95       	ret

000018f8 <__cmpsf2>:
    18f8:	d9 d0       	rcall	.+434    	; 0x1aac <__fp_cmp>
    18fa:	08 f4       	brcc	.+2      	; 0x18fe <__cmpsf2+0x6>
    18fc:	81 e0       	ldi	r24, 0x01	; 1
    18fe:	08 95       	ret

00001900 <__divsf3>:
    1900:	0c d0       	rcall	.+24     	; 0x191a <__divsf3x>
    1902:	0f c1       	rjmp	.+542    	; 0x1b22 <__fp_round>
    1904:	07 d1       	rcall	.+526    	; 0x1b14 <__fp_pscB>
    1906:	40 f0       	brcs	.+16     	; 0x1918 <__divsf3+0x18>
    1908:	fe d0       	rcall	.+508    	; 0x1b06 <__fp_pscA>
    190a:	30 f0       	brcs	.+12     	; 0x1918 <__divsf3+0x18>
    190c:	21 f4       	brne	.+8      	; 0x1916 <__divsf3+0x16>
    190e:	5f 3f       	cpi	r21, 0xFF	; 255
    1910:	19 f0       	breq	.+6      	; 0x1918 <__divsf3+0x18>
    1912:	f0 c0       	rjmp	.+480    	; 0x1af4 <__fp_inf>
    1914:	51 11       	cpse	r21, r1
    1916:	39 c1       	rjmp	.+626    	; 0x1b8a <__fp_szero>
    1918:	f3 c0       	rjmp	.+486    	; 0x1b00 <__fp_nan>

0000191a <__divsf3x>:
    191a:	14 d1       	rcall	.+552    	; 0x1b44 <__fp_split3>
    191c:	98 f3       	brcs	.-26     	; 0x1904 <__divsf3+0x4>

0000191e <__divsf3_pse>:
    191e:	99 23       	and	r25, r25
    1920:	c9 f3       	breq	.-14     	; 0x1914 <__divsf3+0x14>
    1922:	55 23       	and	r21, r21
    1924:	b1 f3       	breq	.-20     	; 0x1912 <__divsf3+0x12>
    1926:	95 1b       	sub	r25, r21
    1928:	55 0b       	sbc	r21, r21
    192a:	bb 27       	eor	r27, r27
    192c:	aa 27       	eor	r26, r26
    192e:	62 17       	cp	r22, r18
    1930:	73 07       	cpc	r23, r19
    1932:	84 07       	cpc	r24, r20
    1934:	38 f0       	brcs	.+14     	; 0x1944 <__divsf3_pse+0x26>
    1936:	9f 5f       	subi	r25, 0xFF	; 255
    1938:	5f 4f       	sbci	r21, 0xFF	; 255
    193a:	22 0f       	add	r18, r18
    193c:	33 1f       	adc	r19, r19
    193e:	44 1f       	adc	r20, r20
    1940:	aa 1f       	adc	r26, r26
    1942:	a9 f3       	breq	.-22     	; 0x192e <__divsf3_pse+0x10>
    1944:	33 d0       	rcall	.+102    	; 0x19ac <__divsf3_pse+0x8e>
    1946:	0e 2e       	mov	r0, r30
    1948:	3a f0       	brmi	.+14     	; 0x1958 <__divsf3_pse+0x3a>
    194a:	e0 e8       	ldi	r30, 0x80	; 128
    194c:	30 d0       	rcall	.+96     	; 0x19ae <__divsf3_pse+0x90>
    194e:	91 50       	subi	r25, 0x01	; 1
    1950:	50 40       	sbci	r21, 0x00	; 0
    1952:	e6 95       	lsr	r30
    1954:	00 1c       	adc	r0, r0
    1956:	ca f7       	brpl	.-14     	; 0x194a <__divsf3_pse+0x2c>
    1958:	29 d0       	rcall	.+82     	; 0x19ac <__divsf3_pse+0x8e>
    195a:	fe 2f       	mov	r31, r30
    195c:	27 d0       	rcall	.+78     	; 0x19ac <__divsf3_pse+0x8e>
    195e:	66 0f       	add	r22, r22
    1960:	77 1f       	adc	r23, r23
    1962:	88 1f       	adc	r24, r24
    1964:	bb 1f       	adc	r27, r27
    1966:	26 17       	cp	r18, r22
    1968:	37 07       	cpc	r19, r23
    196a:	48 07       	cpc	r20, r24
    196c:	ab 07       	cpc	r26, r27
    196e:	b0 e8       	ldi	r27, 0x80	; 128
    1970:	09 f0       	breq	.+2      	; 0x1974 <__divsf3_pse+0x56>
    1972:	bb 0b       	sbc	r27, r27
    1974:	80 2d       	mov	r24, r0
    1976:	bf 01       	movw	r22, r30
    1978:	ff 27       	eor	r31, r31
    197a:	93 58       	subi	r25, 0x83	; 131
    197c:	5f 4f       	sbci	r21, 0xFF	; 255
    197e:	2a f0       	brmi	.+10     	; 0x198a <__divsf3_pse+0x6c>
    1980:	9e 3f       	cpi	r25, 0xFE	; 254
    1982:	51 05       	cpc	r21, r1
    1984:	68 f0       	brcs	.+26     	; 0x19a0 <__divsf3_pse+0x82>
    1986:	b6 c0       	rjmp	.+364    	; 0x1af4 <__fp_inf>
    1988:	00 c1       	rjmp	.+512    	; 0x1b8a <__fp_szero>
    198a:	5f 3f       	cpi	r21, 0xFF	; 255
    198c:	ec f3       	brlt	.-6      	; 0x1988 <__divsf3_pse+0x6a>
    198e:	98 3e       	cpi	r25, 0xE8	; 232
    1990:	dc f3       	brlt	.-10     	; 0x1988 <__divsf3_pse+0x6a>
    1992:	86 95       	lsr	r24
    1994:	77 95       	ror	r23
    1996:	67 95       	ror	r22
    1998:	b7 95       	ror	r27
    199a:	f7 95       	ror	r31
    199c:	9f 5f       	subi	r25, 0xFF	; 255
    199e:	c9 f7       	brne	.-14     	; 0x1992 <__divsf3_pse+0x74>
    19a0:	88 0f       	add	r24, r24
    19a2:	91 1d       	adc	r25, r1
    19a4:	96 95       	lsr	r25
    19a6:	87 95       	ror	r24
    19a8:	97 f9       	bld	r25, 7
    19aa:	08 95       	ret
    19ac:	e1 e0       	ldi	r30, 0x01	; 1
    19ae:	66 0f       	add	r22, r22
    19b0:	77 1f       	adc	r23, r23
    19b2:	88 1f       	adc	r24, r24
    19b4:	bb 1f       	adc	r27, r27
    19b6:	62 17       	cp	r22, r18
    19b8:	73 07       	cpc	r23, r19
    19ba:	84 07       	cpc	r24, r20
    19bc:	ba 07       	cpc	r27, r26
    19be:	20 f0       	brcs	.+8      	; 0x19c8 <__divsf3_pse+0xaa>
    19c0:	62 1b       	sub	r22, r18
    19c2:	73 0b       	sbc	r23, r19
    19c4:	84 0b       	sbc	r24, r20
    19c6:	ba 0b       	sbc	r27, r26
    19c8:	ee 1f       	adc	r30, r30
    19ca:	88 f7       	brcc	.-30     	; 0x19ae <__divsf3_pse+0x90>
    19cc:	e0 95       	com	r30
    19ce:	08 95       	ret

000019d0 <__fixsfsi>:
    19d0:	04 d0       	rcall	.+8      	; 0x19da <__fixunssfsi>
    19d2:	68 94       	set
    19d4:	b1 11       	cpse	r27, r1
    19d6:	d9 c0       	rjmp	.+434    	; 0x1b8a <__fp_szero>
    19d8:	08 95       	ret

000019da <__fixunssfsi>:
    19da:	bc d0       	rcall	.+376    	; 0x1b54 <__fp_splitA>
    19dc:	88 f0       	brcs	.+34     	; 0x1a00 <__fixunssfsi+0x26>
    19de:	9f 57       	subi	r25, 0x7F	; 127
    19e0:	90 f0       	brcs	.+36     	; 0x1a06 <__fixunssfsi+0x2c>
    19e2:	b9 2f       	mov	r27, r25
    19e4:	99 27       	eor	r25, r25
    19e6:	b7 51       	subi	r27, 0x17	; 23
    19e8:	a0 f0       	brcs	.+40     	; 0x1a12 <__fixunssfsi+0x38>
    19ea:	d1 f0       	breq	.+52     	; 0x1a20 <__fixunssfsi+0x46>
    19ec:	66 0f       	add	r22, r22
    19ee:	77 1f       	adc	r23, r23
    19f0:	88 1f       	adc	r24, r24
    19f2:	99 1f       	adc	r25, r25
    19f4:	1a f0       	brmi	.+6      	; 0x19fc <__fixunssfsi+0x22>
    19f6:	ba 95       	dec	r27
    19f8:	c9 f7       	brne	.-14     	; 0x19ec <__fixunssfsi+0x12>
    19fa:	12 c0       	rjmp	.+36     	; 0x1a20 <__fixunssfsi+0x46>
    19fc:	b1 30       	cpi	r27, 0x01	; 1
    19fe:	81 f0       	breq	.+32     	; 0x1a20 <__fixunssfsi+0x46>
    1a00:	c3 d0       	rcall	.+390    	; 0x1b88 <__fp_zero>
    1a02:	b1 e0       	ldi	r27, 0x01	; 1
    1a04:	08 95       	ret
    1a06:	c0 c0       	rjmp	.+384    	; 0x1b88 <__fp_zero>
    1a08:	67 2f       	mov	r22, r23
    1a0a:	78 2f       	mov	r23, r24
    1a0c:	88 27       	eor	r24, r24
    1a0e:	b8 5f       	subi	r27, 0xF8	; 248
    1a10:	39 f0       	breq	.+14     	; 0x1a20 <__fixunssfsi+0x46>
    1a12:	b9 3f       	cpi	r27, 0xF9	; 249
    1a14:	cc f3       	brlt	.-14     	; 0x1a08 <__fixunssfsi+0x2e>
    1a16:	86 95       	lsr	r24
    1a18:	77 95       	ror	r23
    1a1a:	67 95       	ror	r22
    1a1c:	b3 95       	inc	r27
    1a1e:	d9 f7       	brne	.-10     	; 0x1a16 <__fixunssfsi+0x3c>
    1a20:	3e f4       	brtc	.+14     	; 0x1a30 <__fixunssfsi+0x56>
    1a22:	90 95       	com	r25
    1a24:	80 95       	com	r24
    1a26:	70 95       	com	r23
    1a28:	61 95       	neg	r22
    1a2a:	7f 4f       	sbci	r23, 0xFF	; 255
    1a2c:	8f 4f       	sbci	r24, 0xFF	; 255
    1a2e:	9f 4f       	sbci	r25, 0xFF	; 255
    1a30:	08 95       	ret

00001a32 <__floatunsisf>:
    1a32:	e8 94       	clt
    1a34:	09 c0       	rjmp	.+18     	; 0x1a48 <__floatsisf+0x12>

00001a36 <__floatsisf>:
    1a36:	97 fb       	bst	r25, 7
    1a38:	3e f4       	brtc	.+14     	; 0x1a48 <__floatsisf+0x12>
    1a3a:	90 95       	com	r25
    1a3c:	80 95       	com	r24
    1a3e:	70 95       	com	r23
    1a40:	61 95       	neg	r22
    1a42:	7f 4f       	sbci	r23, 0xFF	; 255
    1a44:	8f 4f       	sbci	r24, 0xFF	; 255
    1a46:	9f 4f       	sbci	r25, 0xFF	; 255
    1a48:	99 23       	and	r25, r25
    1a4a:	a9 f0       	breq	.+42     	; 0x1a76 <__floatsisf+0x40>
    1a4c:	f9 2f       	mov	r31, r25
    1a4e:	96 e9       	ldi	r25, 0x96	; 150
    1a50:	bb 27       	eor	r27, r27
    1a52:	93 95       	inc	r25
    1a54:	f6 95       	lsr	r31
    1a56:	87 95       	ror	r24
    1a58:	77 95       	ror	r23
    1a5a:	67 95       	ror	r22
    1a5c:	b7 95       	ror	r27
    1a5e:	f1 11       	cpse	r31, r1
    1a60:	f8 cf       	rjmp	.-16     	; 0x1a52 <__floatsisf+0x1c>
    1a62:	fa f4       	brpl	.+62     	; 0x1aa2 <__floatsisf+0x6c>
    1a64:	bb 0f       	add	r27, r27
    1a66:	11 f4       	brne	.+4      	; 0x1a6c <__floatsisf+0x36>
    1a68:	60 ff       	sbrs	r22, 0
    1a6a:	1b c0       	rjmp	.+54     	; 0x1aa2 <__floatsisf+0x6c>
    1a6c:	6f 5f       	subi	r22, 0xFF	; 255
    1a6e:	7f 4f       	sbci	r23, 0xFF	; 255
    1a70:	8f 4f       	sbci	r24, 0xFF	; 255
    1a72:	9f 4f       	sbci	r25, 0xFF	; 255
    1a74:	16 c0       	rjmp	.+44     	; 0x1aa2 <__floatsisf+0x6c>
    1a76:	88 23       	and	r24, r24
    1a78:	11 f0       	breq	.+4      	; 0x1a7e <__floatsisf+0x48>
    1a7a:	96 e9       	ldi	r25, 0x96	; 150
    1a7c:	11 c0       	rjmp	.+34     	; 0x1aa0 <__floatsisf+0x6a>
    1a7e:	77 23       	and	r23, r23
    1a80:	21 f0       	breq	.+8      	; 0x1a8a <__floatsisf+0x54>
    1a82:	9e e8       	ldi	r25, 0x8E	; 142
    1a84:	87 2f       	mov	r24, r23
    1a86:	76 2f       	mov	r23, r22
    1a88:	05 c0       	rjmp	.+10     	; 0x1a94 <__floatsisf+0x5e>
    1a8a:	66 23       	and	r22, r22
    1a8c:	71 f0       	breq	.+28     	; 0x1aaa <__floatsisf+0x74>
    1a8e:	96 e8       	ldi	r25, 0x86	; 134
    1a90:	86 2f       	mov	r24, r22
    1a92:	70 e0       	ldi	r23, 0x00	; 0
    1a94:	60 e0       	ldi	r22, 0x00	; 0
    1a96:	2a f0       	brmi	.+10     	; 0x1aa2 <__floatsisf+0x6c>
    1a98:	9a 95       	dec	r25
    1a9a:	66 0f       	add	r22, r22
    1a9c:	77 1f       	adc	r23, r23
    1a9e:	88 1f       	adc	r24, r24
    1aa0:	da f7       	brpl	.-10     	; 0x1a98 <__floatsisf+0x62>
    1aa2:	88 0f       	add	r24, r24
    1aa4:	96 95       	lsr	r25
    1aa6:	87 95       	ror	r24
    1aa8:	97 f9       	bld	r25, 7
    1aaa:	08 95       	ret

00001aac <__fp_cmp>:
    1aac:	99 0f       	add	r25, r25
    1aae:	00 08       	sbc	r0, r0
    1ab0:	55 0f       	add	r21, r21
    1ab2:	aa 0b       	sbc	r26, r26
    1ab4:	e0 e8       	ldi	r30, 0x80	; 128
    1ab6:	fe ef       	ldi	r31, 0xFE	; 254
    1ab8:	16 16       	cp	r1, r22
    1aba:	17 06       	cpc	r1, r23
    1abc:	e8 07       	cpc	r30, r24
    1abe:	f9 07       	cpc	r31, r25
    1ac0:	c0 f0       	brcs	.+48     	; 0x1af2 <__fp_cmp+0x46>
    1ac2:	12 16       	cp	r1, r18
    1ac4:	13 06       	cpc	r1, r19
    1ac6:	e4 07       	cpc	r30, r20
    1ac8:	f5 07       	cpc	r31, r21
    1aca:	98 f0       	brcs	.+38     	; 0x1af2 <__fp_cmp+0x46>
    1acc:	62 1b       	sub	r22, r18
    1ace:	73 0b       	sbc	r23, r19
    1ad0:	84 0b       	sbc	r24, r20
    1ad2:	95 0b       	sbc	r25, r21
    1ad4:	39 f4       	brne	.+14     	; 0x1ae4 <__fp_cmp+0x38>
    1ad6:	0a 26       	eor	r0, r26
    1ad8:	61 f0       	breq	.+24     	; 0x1af2 <__fp_cmp+0x46>
    1ada:	23 2b       	or	r18, r19
    1adc:	24 2b       	or	r18, r20
    1ade:	25 2b       	or	r18, r21
    1ae0:	21 f4       	brne	.+8      	; 0x1aea <__fp_cmp+0x3e>
    1ae2:	08 95       	ret
    1ae4:	0a 26       	eor	r0, r26
    1ae6:	09 f4       	brne	.+2      	; 0x1aea <__fp_cmp+0x3e>
    1ae8:	a1 40       	sbci	r26, 0x01	; 1
    1aea:	a6 95       	lsr	r26
    1aec:	8f ef       	ldi	r24, 0xFF	; 255
    1aee:	81 1d       	adc	r24, r1
    1af0:	81 1d       	adc	r24, r1
    1af2:	08 95       	ret

00001af4 <__fp_inf>:
    1af4:	97 f9       	bld	r25, 7
    1af6:	9f 67       	ori	r25, 0x7F	; 127
    1af8:	80 e8       	ldi	r24, 0x80	; 128
    1afa:	70 e0       	ldi	r23, 0x00	; 0
    1afc:	60 e0       	ldi	r22, 0x00	; 0
    1afe:	08 95       	ret

00001b00 <__fp_nan>:
    1b00:	9f ef       	ldi	r25, 0xFF	; 255
    1b02:	80 ec       	ldi	r24, 0xC0	; 192
    1b04:	08 95       	ret

00001b06 <__fp_pscA>:
    1b06:	00 24       	eor	r0, r0
    1b08:	0a 94       	dec	r0
    1b0a:	16 16       	cp	r1, r22
    1b0c:	17 06       	cpc	r1, r23
    1b0e:	18 06       	cpc	r1, r24
    1b10:	09 06       	cpc	r0, r25
    1b12:	08 95       	ret

00001b14 <__fp_pscB>:
    1b14:	00 24       	eor	r0, r0
    1b16:	0a 94       	dec	r0
    1b18:	12 16       	cp	r1, r18
    1b1a:	13 06       	cpc	r1, r19
    1b1c:	14 06       	cpc	r1, r20
    1b1e:	05 06       	cpc	r0, r21
    1b20:	08 95       	ret

00001b22 <__fp_round>:
    1b22:	09 2e       	mov	r0, r25
    1b24:	03 94       	inc	r0
    1b26:	00 0c       	add	r0, r0
    1b28:	11 f4       	brne	.+4      	; 0x1b2e <__fp_round+0xc>
    1b2a:	88 23       	and	r24, r24
    1b2c:	52 f0       	brmi	.+20     	; 0x1b42 <__fp_round+0x20>
    1b2e:	bb 0f       	add	r27, r27
    1b30:	40 f4       	brcc	.+16     	; 0x1b42 <__fp_round+0x20>
    1b32:	bf 2b       	or	r27, r31
    1b34:	11 f4       	brne	.+4      	; 0x1b3a <__fp_round+0x18>
    1b36:	60 ff       	sbrs	r22, 0
    1b38:	04 c0       	rjmp	.+8      	; 0x1b42 <__fp_round+0x20>
    1b3a:	6f 5f       	subi	r22, 0xFF	; 255
    1b3c:	7f 4f       	sbci	r23, 0xFF	; 255
    1b3e:	8f 4f       	sbci	r24, 0xFF	; 255
    1b40:	9f 4f       	sbci	r25, 0xFF	; 255
    1b42:	08 95       	ret

00001b44 <__fp_split3>:
    1b44:	57 fd       	sbrc	r21, 7
    1b46:	90 58       	subi	r25, 0x80	; 128
    1b48:	44 0f       	add	r20, r20
    1b4a:	55 1f       	adc	r21, r21
    1b4c:	59 f0       	breq	.+22     	; 0x1b64 <__fp_splitA+0x10>
    1b4e:	5f 3f       	cpi	r21, 0xFF	; 255
    1b50:	71 f0       	breq	.+28     	; 0x1b6e <__fp_splitA+0x1a>
    1b52:	47 95       	ror	r20

00001b54 <__fp_splitA>:
    1b54:	88 0f       	add	r24, r24
    1b56:	97 fb       	bst	r25, 7
    1b58:	99 1f       	adc	r25, r25
    1b5a:	61 f0       	breq	.+24     	; 0x1b74 <__fp_splitA+0x20>
    1b5c:	9f 3f       	cpi	r25, 0xFF	; 255
    1b5e:	79 f0       	breq	.+30     	; 0x1b7e <__fp_splitA+0x2a>
    1b60:	87 95       	ror	r24
    1b62:	08 95       	ret
    1b64:	12 16       	cp	r1, r18
    1b66:	13 06       	cpc	r1, r19
    1b68:	14 06       	cpc	r1, r20
    1b6a:	55 1f       	adc	r21, r21
    1b6c:	f2 cf       	rjmp	.-28     	; 0x1b52 <__fp_split3+0xe>
    1b6e:	46 95       	lsr	r20
    1b70:	f1 df       	rcall	.-30     	; 0x1b54 <__fp_splitA>
    1b72:	08 c0       	rjmp	.+16     	; 0x1b84 <__fp_splitA+0x30>
    1b74:	16 16       	cp	r1, r22
    1b76:	17 06       	cpc	r1, r23
    1b78:	18 06       	cpc	r1, r24
    1b7a:	99 1f       	adc	r25, r25
    1b7c:	f1 cf       	rjmp	.-30     	; 0x1b60 <__fp_splitA+0xc>
    1b7e:	86 95       	lsr	r24
    1b80:	71 05       	cpc	r23, r1
    1b82:	61 05       	cpc	r22, r1
    1b84:	08 94       	sec
    1b86:	08 95       	ret

00001b88 <__fp_zero>:
    1b88:	e8 94       	clt

00001b8a <__fp_szero>:
    1b8a:	bb 27       	eor	r27, r27
    1b8c:	66 27       	eor	r22, r22
    1b8e:	77 27       	eor	r23, r23
    1b90:	cb 01       	movw	r24, r22
    1b92:	97 f9       	bld	r25, 7
    1b94:	08 95       	ret

00001b96 <__gesf2>:
    1b96:	8a df       	rcall	.-236    	; 0x1aac <__fp_cmp>
    1b98:	08 f4       	brcc	.+2      	; 0x1b9c <__gesf2+0x6>
    1b9a:	8f ef       	ldi	r24, 0xFF	; 255
    1b9c:	08 95       	ret

00001b9e <__mulsf3>:
    1b9e:	0b d0       	rcall	.+22     	; 0x1bb6 <__mulsf3x>
    1ba0:	c0 cf       	rjmp	.-128    	; 0x1b22 <__fp_round>
    1ba2:	b1 df       	rcall	.-158    	; 0x1b06 <__fp_pscA>
    1ba4:	28 f0       	brcs	.+10     	; 0x1bb0 <__mulsf3+0x12>
    1ba6:	b6 df       	rcall	.-148    	; 0x1b14 <__fp_pscB>
    1ba8:	18 f0       	brcs	.+6      	; 0x1bb0 <__mulsf3+0x12>
    1baa:	95 23       	and	r25, r21
    1bac:	09 f0       	breq	.+2      	; 0x1bb0 <__mulsf3+0x12>
    1bae:	a2 cf       	rjmp	.-188    	; 0x1af4 <__fp_inf>
    1bb0:	a7 cf       	rjmp	.-178    	; 0x1b00 <__fp_nan>
    1bb2:	11 24       	eor	r1, r1
    1bb4:	ea cf       	rjmp	.-44     	; 0x1b8a <__fp_szero>

00001bb6 <__mulsf3x>:
    1bb6:	c6 df       	rcall	.-116    	; 0x1b44 <__fp_split3>
    1bb8:	a0 f3       	brcs	.-24     	; 0x1ba2 <__mulsf3+0x4>

00001bba <__mulsf3_pse>:
    1bba:	95 9f       	mul	r25, r21
    1bbc:	d1 f3       	breq	.-12     	; 0x1bb2 <__mulsf3+0x14>
    1bbe:	95 0f       	add	r25, r21
    1bc0:	50 e0       	ldi	r21, 0x00	; 0
    1bc2:	55 1f       	adc	r21, r21
    1bc4:	62 9f       	mul	r22, r18
    1bc6:	f0 01       	movw	r30, r0
    1bc8:	72 9f       	mul	r23, r18
    1bca:	bb 27       	eor	r27, r27
    1bcc:	f0 0d       	add	r31, r0
    1bce:	b1 1d       	adc	r27, r1
    1bd0:	63 9f       	mul	r22, r19
    1bd2:	aa 27       	eor	r26, r26
    1bd4:	f0 0d       	add	r31, r0
    1bd6:	b1 1d       	adc	r27, r1
    1bd8:	aa 1f       	adc	r26, r26
    1bda:	64 9f       	mul	r22, r20
    1bdc:	66 27       	eor	r22, r22
    1bde:	b0 0d       	add	r27, r0
    1be0:	a1 1d       	adc	r26, r1
    1be2:	66 1f       	adc	r22, r22
    1be4:	82 9f       	mul	r24, r18
    1be6:	22 27       	eor	r18, r18
    1be8:	b0 0d       	add	r27, r0
    1bea:	a1 1d       	adc	r26, r1
    1bec:	62 1f       	adc	r22, r18
    1bee:	73 9f       	mul	r23, r19
    1bf0:	b0 0d       	add	r27, r0
    1bf2:	a1 1d       	adc	r26, r1
    1bf4:	62 1f       	adc	r22, r18
    1bf6:	83 9f       	mul	r24, r19
    1bf8:	a0 0d       	add	r26, r0
    1bfa:	61 1d       	adc	r22, r1
    1bfc:	22 1f       	adc	r18, r18
    1bfe:	74 9f       	mul	r23, r20
    1c00:	33 27       	eor	r19, r19
    1c02:	a0 0d       	add	r26, r0
    1c04:	61 1d       	adc	r22, r1
    1c06:	23 1f       	adc	r18, r19
    1c08:	84 9f       	mul	r24, r20
    1c0a:	60 0d       	add	r22, r0
    1c0c:	21 1d       	adc	r18, r1
    1c0e:	82 2f       	mov	r24, r18
    1c10:	76 2f       	mov	r23, r22
    1c12:	6a 2f       	mov	r22, r26
    1c14:	11 24       	eor	r1, r1
    1c16:	9f 57       	subi	r25, 0x7F	; 127
    1c18:	50 40       	sbci	r21, 0x00	; 0
    1c1a:	8a f0       	brmi	.+34     	; 0x1c3e <__mulsf3_pse+0x84>
    1c1c:	e1 f0       	breq	.+56     	; 0x1c56 <__mulsf3_pse+0x9c>
    1c1e:	88 23       	and	r24, r24
    1c20:	4a f0       	brmi	.+18     	; 0x1c34 <__mulsf3_pse+0x7a>
    1c22:	ee 0f       	add	r30, r30
    1c24:	ff 1f       	adc	r31, r31
    1c26:	bb 1f       	adc	r27, r27
    1c28:	66 1f       	adc	r22, r22
    1c2a:	77 1f       	adc	r23, r23
    1c2c:	88 1f       	adc	r24, r24
    1c2e:	91 50       	subi	r25, 0x01	; 1
    1c30:	50 40       	sbci	r21, 0x00	; 0
    1c32:	a9 f7       	brne	.-22     	; 0x1c1e <__mulsf3_pse+0x64>
    1c34:	9e 3f       	cpi	r25, 0xFE	; 254
    1c36:	51 05       	cpc	r21, r1
    1c38:	70 f0       	brcs	.+28     	; 0x1c56 <__mulsf3_pse+0x9c>
    1c3a:	5c cf       	rjmp	.-328    	; 0x1af4 <__fp_inf>
    1c3c:	a6 cf       	rjmp	.-180    	; 0x1b8a <__fp_szero>
    1c3e:	5f 3f       	cpi	r21, 0xFF	; 255
    1c40:	ec f3       	brlt	.-6      	; 0x1c3c <__mulsf3_pse+0x82>
    1c42:	98 3e       	cpi	r25, 0xE8	; 232
    1c44:	dc f3       	brlt	.-10     	; 0x1c3c <__mulsf3_pse+0x82>
    1c46:	86 95       	lsr	r24
    1c48:	77 95       	ror	r23
    1c4a:	67 95       	ror	r22
    1c4c:	b7 95       	ror	r27
    1c4e:	f7 95       	ror	r31
    1c50:	e7 95       	ror	r30
    1c52:	9f 5f       	subi	r25, 0xFF	; 255
    1c54:	c1 f7       	brne	.-16     	; 0x1c46 <__mulsf3_pse+0x8c>
    1c56:	fe 2b       	or	r31, r30
    1c58:	88 0f       	add	r24, r24
    1c5a:	91 1d       	adc	r25, r1
    1c5c:	96 95       	lsr	r25
    1c5e:	87 95       	ror	r24
    1c60:	97 f9       	bld	r25, 7
    1c62:	08 95       	ret

00001c64 <__udivmodqi4>:
    1c64:	99 1b       	sub	r25, r25
    1c66:	79 e0       	ldi	r23, 0x09	; 9
    1c68:	04 c0       	rjmp	.+8      	; 0x1c72 <__udivmodqi4_ep>

00001c6a <__udivmodqi4_loop>:
    1c6a:	99 1f       	adc	r25, r25
    1c6c:	96 17       	cp	r25, r22
    1c6e:	08 f0       	brcs	.+2      	; 0x1c72 <__udivmodqi4_ep>
    1c70:	96 1b       	sub	r25, r22

00001c72 <__udivmodqi4_ep>:
    1c72:	88 1f       	adc	r24, r24
    1c74:	7a 95       	dec	r23
    1c76:	c9 f7       	brne	.-14     	; 0x1c6a <__udivmodqi4_loop>
    1c78:	80 95       	com	r24
    1c7a:	08 95       	ret

00001c7c <_exit>:
    1c7c:	f8 94       	cli

00001c7e <__stop_program>:
    1c7e:	ff cf       	rjmp	.-2      	; 0x1c7e <__stop_program>
